Component: ARM Compiler 5.05 update 1 (build 106) Tool: armlink [4d0efa]

==============================================================================

Section Cross References

    main.o(i.OnRxDone) refers to memcpya.o(.text) for __aeabi_memcpy
    main.o(i.OnRxDone) refers to sx1272-board.o(.constdata) for Radio
    main.o(i.OnRxDone) refers to main.o(.data) for .data
    main.o(i.OnRxDone) refers to main.o(.bss) for .bss
    main.o(i.OnRxError) refers to sx1272-board.o(.constdata) for Radio
    main.o(i.OnRxError) refers to main.o(.data) for .data
    main.o(i.OnRxTimeout) refers to sx1272-board.o(.constdata) for Radio
    main.o(i.OnRxTimeout) refers to main.o(.data) for .data
    main.o(i.OnTxDone) refers to sx1272-board.o(.constdata) for Radio
    main.o(i.OnTxDone) refers to main.o(.data) for .data
    main.o(i.OnTxTimeout) refers to sx1272-board.o(.constdata) for Radio
    main.o(i.OnTxTimeout) refers to main.o(.data) for .data
    main.o(i.main) refers to board.o(i.BoardInitMcu) for BoardInitMcu
    main.o(i.main) refers to board.o(i.BoardInitPeriph) for BoardInitPeriph
    main.o(i.main) refers to strncmp.o(.text) for strncmp
    main.o(i.main) refers to gpio.o(i.GpioRead) for GpioRead
    main.o(i.main) refers to gpio.o(i.GpioWrite) for GpioWrite
    main.o(i.main) refers to delay.o(i.DelayMs) for DelayMs
    main.o(i.main) refers to timer.o(i.TimerLowPowerHandler) for TimerLowPowerHandler
    main.o(i.main) refers to main.o(i.OnTxDone) for OnTxDone
    main.o(i.main) refers to main.o(.bss) for .bss
    main.o(i.main) refers to main.o(i.OnRxDone) for OnRxDone
    main.o(i.main) refers to main.o(i.OnTxTimeout) for OnTxTimeout
    main.o(i.main) refers to main.o(i.OnRxTimeout) for OnRxTimeout
    main.o(i.main) refers to main.o(i.OnRxError) for OnRxError
    main.o(i.main) refers to sx1272-board.o(.constdata) for Radio
    main.o(i.main) refers to main.o(.data) for .data
    main.o(i.main) refers to main.o(.constdata) for .constdata
    main.o(i.main) refers to board.o(.bss) for Led1
    adc-board.o(i.AdcMcuFormat) refers to stm32l1xx_rcc.o(i.RCC_HSICmd) for RCC_HSICmd
    adc-board.o(i.AdcMcuFormat) refers to stm32l1xx_rcc.o(i.RCC_GetFlagStatus) for RCC_GetFlagStatus
    adc-board.o(i.AdcMcuFormat) refers to stm32l1xx_rcc.o(i.RCC_APB2PeriphClockCmd) for RCC_APB2PeriphClockCmd
    adc-board.o(i.AdcMcuFormat) refers to stm32l1xx_adc.o(i.ADC_CommonInit) for ADC_CommonInit
    adc-board.o(i.AdcMcuFormat) refers to stm32l1xx_adc.o(i.ADC_StructInit) for ADC_StructInit
    adc-board.o(i.AdcMcuFormat) refers to stm32l1xx_adc.o(i.ADC_Init) for ADC_Init
    adc-board.o(i.AdcMcuFormat) refers to stm32l1xx_adc.o(i.ADC_DelaySelectionConfig) for ADC_DelaySelectionConfig
    adc-board.o(i.AdcMcuInit) refers to stm32l1xx_adc.o(i.ADC_DeInit) for ADC_DeInit
    adc-board.o(i.AdcMcuInit) refers to gpio.o(i.GpioInit) for GpioInit
    adc-board.o(i.AdcMcuRead) refers to stm32l1xx_rcc.o(i.RCC_HSICmd) for RCC_HSICmd
    adc-board.o(i.AdcMcuRead) refers to stm32l1xx_rcc.o(i.RCC_GetFlagStatus) for RCC_GetFlagStatus
    adc-board.o(i.AdcMcuRead) refers to stm32l1xx_rcc.o(i.RCC_APB2PeriphClockCmd) for RCC_APB2PeriphClockCmd
    adc-board.o(i.AdcMcuRead) refers to stm32l1xx_adc.o(i.ADC_TempSensorVrefintCmd) for ADC_TempSensorVrefintCmd
    adc-board.o(i.AdcMcuRead) refers to stm32l1xx_adc.o(i.ADC_RegularChannelConfig) for ADC_RegularChannelConfig
    adc-board.o(i.AdcMcuRead) refers to stm32l1xx_adc.o(i.ADC_DelaySelectionConfig) for ADC_DelaySelectionConfig
    adc-board.o(i.AdcMcuRead) refers to stm32l1xx_adc.o(i.ADC_PowerDownCmd) for ADC_PowerDownCmd
    adc-board.o(i.AdcMcuRead) refers to stm32l1xx_adc.o(i.ADC_Cmd) for ADC_Cmd
    adc-board.o(i.AdcMcuRead) refers to stm32l1xx_adc.o(i.ADC_GetFlagStatus) for ADC_GetFlagStatus
    adc-board.o(i.AdcMcuRead) refers to stm32l1xx_adc.o(i.ADC_SoftwareStartConv) for ADC_SoftwareStartConv
    adc-board.o(i.AdcMcuRead) refers to stm32l1xx_adc.o(i.ADC_GetConversionValue) for ADC_GetConversionValue
    board.o(i.BoardDeInitMcu) refers to i2c.o(i.I2cDeInit) for I2cDeInit
    board.o(i.BoardDeInitMcu) refers to spi-board.o(i.SpiDeInit) for SpiDeInit
    board.o(i.BoardDeInitMcu) refers to sx1272-board.o(i.SX1272IoDeInit) for SX1272IoDeInit
    board.o(i.BoardDeInitMcu) refers to gpio.o(i.GpioInit) for GpioInit
    board.o(i.BoardDeInitMcu) refers to board.o(.bss) for .bss
    board.o(i.BoardDeInitMcu) refers to sx1272.o(.bss) for SX1272
    board.o(i.BoardDeInitMcu) refers to board.o(.data) for .data
    board.o(i.BoardGetBatteryLevel) refers to adc.o(i.AdcReadChannel) for AdcReadChannel
    board.o(i.BoardGetBatteryLevel) refers to dflti.o(.text) for __aeabi_i2d
    board.o(i.BoardGetBatteryLevel) refers to dmul.o(.text) for __aeabi_dmul
    board.o(i.BoardGetBatteryLevel) refers to dfixui.o(.text) for __aeabi_d2uiz
    board.o(i.BoardGetBatteryLevel) refers to board.o(.bss) for .bss
    board.o(i.BoardInitMcu) refers to misc.o(i.NVIC_PriorityGroupConfig) for NVIC_PriorityGroupConfig
    board.o(i.BoardInitMcu) refers to i2c.o(i.I2cInit) for I2cInit
    board.o(i.BoardInitMcu) refers to adc.o(i.AdcInit) for AdcInit
    board.o(i.BoardInitMcu) refers to spi-board.o(i.SpiInit) for SpiInit
    board.o(i.BoardInitMcu) refers to sx1272-board.o(i.SX1272IoInit) for SX1272IoInit
    board.o(i.BoardInitMcu) refers to timer.o(i.TimerSetLowPowerEnable) for TimerSetLowPowerEnable
    board.o(i.BoardInitMcu) refers to board.o(i.BoardUnusedIoInit) for BoardUnusedIoInit
    board.o(i.BoardInitMcu) refers to timer.o(i.TimerGetLowPowerEnable) for TimerGetLowPowerEnable
    board.o(i.BoardInitMcu) refers to rtc-board.o(i.RtcInit) for RtcInit
    board.o(i.BoardInitMcu) refers to timer-board.o(i.TimerHwInit) for TimerHwInit
    board.o(i.BoardInitMcu) refers to board.o(.data) for .data
    board.o(i.BoardInitMcu) refers to board.o(.bss) for .bss
    board.o(i.BoardInitMcu) refers to sx1272.o(.bss) for SX1272
    board.o(i.BoardInitPeriph) refers to gpio.o(i.GpioInit) for GpioInit
    board.o(i.BoardInitPeriph) refers to mpl3115.o(i.MPL3115Init) for MPL3115Init
    board.o(i.BoardInitPeriph) refers to mma8451.o(i.MMA8451Init) for MMA8451Init
    board.o(i.BoardInitPeriph) refers to mag3110.o(i.MAG3110Init) for MAG3110Init
    board.o(i.BoardInitPeriph) refers to sx9500.o(i.SX9500Init) for SX9500Init
    board.o(i.BoardInitPeriph) refers to gps.o(i.GpsInit) for GpsInit
    board.o(i.BoardInitPeriph) refers to gpio.o(i.GpioWrite) for GpioWrite
    board.o(i.BoardInitPeriph) refers to board.o(.bss) for .bss
    board.o(i.BoardUnusedIoInit) refers to gpio.o(i.GpioInit) for GpioInit
    board.o(i.BoardUnusedIoInit) refers to stm32l1xx_dbgmcu.o(i.DBGMCU_Config) for DBGMCU_Config
    gpio-board.o(i.EXTI0_IRQHandler) refers to timer.o(i.TimerGetLowPowerEnable) for TimerGetLowPowerEnable
    gpio-board.o(i.EXTI0_IRQHandler) refers to rtc-board.o(i.RtcRecoverMcuStatus) for RtcRecoverMcuStatus
    gpio-board.o(i.EXTI0_IRQHandler) refers to stm32l1xx_exti.o(i.EXTI_GetITStatus) for EXTI_GetITStatus
    gpio-board.o(i.EXTI0_IRQHandler) refers to stm32l1xx_exti.o(i.EXTI_ClearITPendingBit) for EXTI_ClearITPendingBit
    gpio-board.o(i.EXTI0_IRQHandler) refers to gpio-board.o(.bss) for .bss
    gpio-board.o(i.EXTI15_10_IRQHandler) refers to timer.o(i.TimerGetLowPowerEnable) for TimerGetLowPowerEnable
    gpio-board.o(i.EXTI15_10_IRQHandler) refers to rtc-board.o(i.RtcRecoverMcuStatus) for RtcRecoverMcuStatus
    gpio-board.o(i.EXTI15_10_IRQHandler) refers to stm32l1xx_exti.o(i.EXTI_GetITStatus) for EXTI_GetITStatus
    gpio-board.o(i.EXTI15_10_IRQHandler) refers to stm32l1xx_exti.o(i.EXTI_ClearITPendingBit) for EXTI_ClearITPendingBit
    gpio-board.o(i.EXTI15_10_IRQHandler) refers to gpio-board.o(.bss) for .bss
    gpio-board.o(i.EXTI1_IRQHandler) refers to timer.o(i.TimerGetLowPowerEnable) for TimerGetLowPowerEnable
    gpio-board.o(i.EXTI1_IRQHandler) refers to rtc-board.o(i.RtcRecoverMcuStatus) for RtcRecoverMcuStatus
    gpio-board.o(i.EXTI1_IRQHandler) refers to stm32l1xx_exti.o(i.EXTI_GetITStatus) for EXTI_GetITStatus
    gpio-board.o(i.EXTI1_IRQHandler) refers to stm32l1xx_exti.o(i.EXTI_ClearITPendingBit) for EXTI_ClearITPendingBit
    gpio-board.o(i.EXTI1_IRQHandler) refers to gpio-board.o(.bss) for .bss
    gpio-board.o(i.EXTI2_IRQHandler) refers to timer.o(i.TimerGetLowPowerEnable) for TimerGetLowPowerEnable
    gpio-board.o(i.EXTI2_IRQHandler) refers to rtc-board.o(i.RtcRecoverMcuStatus) for RtcRecoverMcuStatus
    gpio-board.o(i.EXTI2_IRQHandler) refers to stm32l1xx_exti.o(i.EXTI_GetITStatus) for EXTI_GetITStatus
    gpio-board.o(i.EXTI2_IRQHandler) refers to stm32l1xx_exti.o(i.EXTI_ClearITPendingBit) for EXTI_ClearITPendingBit
    gpio-board.o(i.EXTI2_IRQHandler) refers to gpio-board.o(.bss) for .bss
    gpio-board.o(i.EXTI3_IRQHandler) refers to timer.o(i.TimerGetLowPowerEnable) for TimerGetLowPowerEnable
    gpio-board.o(i.EXTI3_IRQHandler) refers to rtc-board.o(i.RtcRecoverMcuStatus) for RtcRecoverMcuStatus
    gpio-board.o(i.EXTI3_IRQHandler) refers to stm32l1xx_exti.o(i.EXTI_GetITStatus) for EXTI_GetITStatus
    gpio-board.o(i.EXTI3_IRQHandler) refers to stm32l1xx_exti.o(i.EXTI_ClearITPendingBit) for EXTI_ClearITPendingBit
    gpio-board.o(i.EXTI3_IRQHandler) refers to gpio-board.o(.bss) for .bss
    gpio-board.o(i.EXTI4_IRQHandler) refers to timer.o(i.TimerGetLowPowerEnable) for TimerGetLowPowerEnable
    gpio-board.o(i.EXTI4_IRQHandler) refers to rtc-board.o(i.RtcRecoverMcuStatus) for RtcRecoverMcuStatus
    gpio-board.o(i.EXTI4_IRQHandler) refers to stm32l1xx_exti.o(i.EXTI_GetITStatus) for EXTI_GetITStatus
    gpio-board.o(i.EXTI4_IRQHandler) refers to stm32l1xx_exti.o(i.EXTI_ClearITPendingBit) for EXTI_ClearITPendingBit
    gpio-board.o(i.EXTI4_IRQHandler) refers to gpio-board.o(.bss) for .bss
    gpio-board.o(i.EXTI9_5_IRQHandler) refers to timer.o(i.TimerGetLowPowerEnable) for TimerGetLowPowerEnable
    gpio-board.o(i.EXTI9_5_IRQHandler) refers to rtc-board.o(i.RtcRecoverMcuStatus) for RtcRecoverMcuStatus
    gpio-board.o(i.EXTI9_5_IRQHandler) refers to stm32l1xx_exti.o(i.EXTI_GetITStatus) for EXTI_GetITStatus
    gpio-board.o(i.EXTI9_5_IRQHandler) refers to stm32l1xx_exti.o(i.EXTI_ClearITPendingBit) for EXTI_ClearITPendingBit
    gpio-board.o(i.EXTI9_5_IRQHandler) refers to gpio-board.o(.bss) for .bss
    gpio-board.o(i.GpioMcuInit) refers to stm32l1xx_rcc.o(i.RCC_AHBPeriphClockCmd) for RCC_AHBPeriphClockCmd
    gpio-board.o(i.GpioMcuInit) refers to gpio-board.o(i.GpioMcuWrite) for GpioMcuWrite
    gpio-board.o(i.GpioMcuInit) refers to stm32l1xx_gpio.o(i.GPIO_Init) for GPIO_Init
    gpio-board.o(i.GpioMcuRead) refers to stm32l1xx_gpio.o(i.GPIO_ReadInputDataBit) for GPIO_ReadInputDataBit
    gpio-board.o(i.GpioMcuRemoveInterrupt) refers to stm32l1xx_exti.o(i.EXTI_Init) for EXTI_Init
    gpio-board.o(i.GpioMcuRemoveInterrupt) refers to gpio-board.o(.bss) for .bss
    gpio-board.o(i.GpioMcuSetInterrupt) refers to stm32l1xx_rcc.o(i.RCC_APB2PeriphClockCmd) for RCC_APB2PeriphClockCmd
    gpio-board.o(i.GpioMcuSetInterrupt) refers to stm32l1xx_syscfg.o(i.SYSCFG_EXTILineConfig) for SYSCFG_EXTILineConfig
    gpio-board.o(i.GpioMcuSetInterrupt) refers to stm32l1xx_exti.o(i.EXTI_Init) for EXTI_Init
    gpio-board.o(i.GpioMcuSetInterrupt) refers to misc.o(i.NVIC_Init) for NVIC_Init
    gpio-board.o(i.GpioMcuSetInterrupt) refers to gpio-board.o(.bss) for .bss
    gpio-board.o(i.GpioMcuWrite) refers to stm32l1xx_gpio.o(i.GPIO_SetBits) for GPIO_SetBits
    gpio-board.o(i.GpioMcuWrite) refers to stm32l1xx_gpio.o(i.GPIO_ResetBits) for GPIO_ResetBits
    gps-board.o(i.GpsMcuInit) refers to fifo.o(i.FifoInit) for FifoInit
    gps-board.o(i.GpsMcuInit) refers to gpio.o(i.GpioWrite) for GpioWrite
    gps-board.o(i.GpsMcuInit) refers to gpio.o(i.GpioInit) for GpioInit
    gps-board.o(i.GpsMcuInit) refers to gpio.o(i.GpioSetInterrupt) for GpioSetInterrupt
    gps-board.o(i.GpsMcuInit) refers to gps-board.o(.data) for .data
    gps-board.o(i.GpsMcuInit) refers to gps-board.o(.bss) for .bss
    gps-board.o(i.GpsMcuInit) refers to board.o(.bss) for Uart1
    gps-board.o(i.GpsMcuInit) refers to gps-board.o(i.GpsMcuIrqNotify) for GpsMcuIrqNotify
    gps-board.o(i.GpsMcuInit) refers to board.o(.bss) for GpsPowerEn
    gps-board.o(i.GpsMcuInit) refers to board.o(.bss) for GpsPps
    gps-board.o(i.GpsMcuInit) refers to gps-board.o(i.GpsMcuOnPpsSignal) for GpsMcuOnPpsSignal
    gps-board.o(i.GpsMcuIrqNotify) refers to uart.o(i.UartGetChar) for UartGetChar
    gps-board.o(i.GpsMcuIrqNotify) refers to gps.o(i.GpsParseGpsData) for GpsParseGpsData
    gps-board.o(i.GpsMcuIrqNotify) refers to uart.o(i.UartDeInit) for UartDeInit
    gps-board.o(i.GpsMcuIrqNotify) refers to rtc-board.o(i.BlockLowPowerDuringTask) for BlockLowPowerDuringTask
    gps-board.o(i.GpsMcuIrqNotify) refers to board.o(.bss) for Uart1
    gps-board.o(i.GpsMcuIrqNotify) refers to gps-board.o(.data) for .data
    gps-board.o(i.GpsMcuIrqNotify) refers to gps-board.o(.bss) for .bss
    gps-board.o(i.GpsMcuOnPpsSignal) refers to gps.o(i.GpsPpsHandler) for GpsPpsHandler
    gps-board.o(i.GpsMcuOnPpsSignal) refers to uart.o(i.UartInit) for UartInit
    gps-board.o(i.GpsMcuOnPpsSignal) refers to uart.o(i.UartConfig) for UartConfig
    gps-board.o(i.GpsMcuOnPpsSignal) refers to board.o(.bss) for Uart1
    i2c-board.o(i.I2cMcuDeInit) refers to stm32l1xx_i2c.o(i.I2C_DeInit) for I2C_DeInit
    i2c-board.o(i.I2cMcuDeInit) refers to gpio.o(i.GpioInit) for GpioInit
    i2c-board.o(i.I2cMcuFormat) refers to stm32l1xx_i2c.o(i.I2C_Init) for I2C_Init
    i2c-board.o(i.I2cMcuFormat) refers to stm32l1xx_i2c.o(i.I2C_Cmd) for I2C_Cmd
    i2c-board.o(i.I2cMcuInit) refers to stm32l1xx_rcc.o(i.RCC_APB1PeriphClockCmd) for RCC_APB1PeriphClockCmd
    i2c-board.o(i.I2cMcuInit) refers to stm32l1xx_i2c.o(i.I2C_DeInit) for I2C_DeInit
    i2c-board.o(i.I2cMcuInit) refers to gpio.o(i.GpioInit) for GpioInit
    i2c-board.o(i.I2cMcuInit) refers to stm32l1xx_gpio.o(i.GPIO_PinAFConfig) for GPIO_PinAFConfig
    i2c-board.o(i.I2cMcuReadBuffer) refers to i2c.o(i.I2cResetBus) for I2cResetBus
    i2c-board.o(i.I2cMcuReadBuffer) refers to stm32l1xx_i2c.o(i.I2C_GetFlagStatus) for I2C_GetFlagStatus
    i2c-board.o(i.I2cMcuReadBuffer) refers to stm32l1xx_i2c.o(i.I2C_GenerateSTART) for I2C_GenerateSTART
    i2c-board.o(i.I2cMcuReadBuffer) refers to stm32l1xx_i2c.o(i.I2C_CheckEvent) for I2C_CheckEvent
    i2c-board.o(i.I2cMcuReadBuffer) refers to stm32l1xx_i2c.o(i.I2C_Send7bitAddress) for I2C_Send7bitAddress
    i2c-board.o(i.I2cMcuReadBuffer) refers to stm32l1xx_i2c.o(i.I2C_SendData) for I2C_SendData
    i2c-board.o(i.I2cMcuReadBuffer) refers to stm32l1xx_i2c.o(i.I2C_AcknowledgeConfig) for I2C_AcknowledgeConfig
    i2c-board.o(i.I2cMcuReadBuffer) refers to stm32l1xx_i2c.o(i.I2C_GenerateSTOP) for I2C_GenerateSTOP
    i2c-board.o(i.I2cMcuReadBuffer) refers to stm32l1xx_i2c.o(i.I2C_ReceiveData) for I2C_ReceiveData
    i2c-board.o(i.I2cMcuReadBuffer) refers to i2c-board.o(.data) for I2cInternalAddrSize
    i2c-board.o(i.I2cMcuWaitStandbyState) refers to i2c.o(i.I2cResetBus) for I2cResetBus
    i2c-board.o(i.I2cMcuWaitStandbyState) refers to stm32l1xx_i2c.o(i.I2C_GetFlagStatus) for I2C_GetFlagStatus
    i2c-board.o(i.I2cMcuWaitStandbyState) refers to stm32l1xx_i2c.o(i.I2C_GenerateSTART) for I2C_GenerateSTART
    i2c-board.o(i.I2cMcuWaitStandbyState) refers to stm32l1xx_i2c.o(i.I2C_CheckEvent) for I2C_CheckEvent
    i2c-board.o(i.I2cMcuWaitStandbyState) refers to stm32l1xx_i2c.o(i.I2C_Send7bitAddress) for I2C_Send7bitAddress
    i2c-board.o(i.I2cMcuWaitStandbyState) refers to stm32l1xx_i2c.o(i.I2C_GenerateSTOP) for I2C_GenerateSTOP
    i2c-board.o(i.I2cMcuWaitStandbyState) refers to stm32l1xx_i2c.o(i.I2C_ClearFlag) for I2C_ClearFlag
    i2c-board.o(i.I2cMcuWriteBuffer) refers to i2c.o(i.I2cResetBus) for I2cResetBus
    i2c-board.o(i.I2cMcuWriteBuffer) refers to stm32l1xx_i2c.o(i.I2C_GetFlagStatus) for I2C_GetFlagStatus
    i2c-board.o(i.I2cMcuWriteBuffer) refers to stm32l1xx_i2c.o(i.I2C_GenerateSTART) for I2C_GenerateSTART
    i2c-board.o(i.I2cMcuWriteBuffer) refers to stm32l1xx_i2c.o(i.I2C_CheckEvent) for I2C_CheckEvent
    i2c-board.o(i.I2cMcuWriteBuffer) refers to stm32l1xx_i2c.o(i.I2C_Send7bitAddress) for I2C_Send7bitAddress
    i2c-board.o(i.I2cMcuWriteBuffer) refers to stm32l1xx_i2c.o(i.I2C_SendData) for I2C_SendData
    i2c-board.o(i.I2cMcuWriteBuffer) refers to stm32l1xx_i2c.o(i.I2C_GenerateSTOP) for I2C_GenerateSTOP
    i2c-board.o(i.I2cMcuWriteBuffer) refers to i2c-board.o(.data) for I2cInternalAddrSize
    i2c-board.o(i.I2cSetAddrSize) refers to i2c-board.o(.data) for I2cInternalAddrSize
    rtc-board.o(i.BlockLowPowerDuringTask) refers to rtc-board.o(i.RtcRecoverMcuStatus) for RtcRecoverMcuStatus
    rtc-board.o(i.BlockLowPowerDuringTask) refers to rtc-board.o(.data) for .data
    rtc-board.o(i.RTC_Alarm_IRQHandler) refers to stm32l1xx_rtc.o(i.RTC_GetITStatus) for RTC_GetITStatus
    rtc-board.o(i.RTC_Alarm_IRQHandler) refers to rtc-board.o(i.RtcRecoverMcuStatus) for RtcRecoverMcuStatus
    rtc-board.o(i.RTC_Alarm_IRQHandler) refers to timer.o(i.TimerIrqHandler) for TimerIrqHandler
    rtc-board.o(i.RTC_Alarm_IRQHandler) refers to stm32l1xx_rtc.o(i.RTC_ClearITPendingBit) for RTC_ClearITPendingBit
    rtc-board.o(i.RTC_Alarm_IRQHandler) refers to stm32l1xx_exti.o(i.EXTI_ClearITPendingBit) for EXTI_ClearITPendingBit
    rtc-board.o(i.RtcClearStatus) refers to stm32l1xx_rtc.o(i.RTC_ClearFlag) for RTC_ClearFlag
    rtc-board.o(i.RtcClearStatus) refers to stm32l1xx_rtc.o(i.RTC_ITConfig) for RTC_ITConfig
    rtc-board.o(i.RtcClearStatus) refers to stm32l1xx_rtc.o(i.RTC_AlarmCmd) for RTC_AlarmCmd
    rtc-board.o(i.RtcDelayMs) refers to rtc-board.o(i.RtcGetTimerValue) for RtcGetTimerValue
    rtc-board.o(i.RtcEnterLowPowerStopMode) refers to board.o(i.BoardDeInitMcu) for BoardDeInitMcu
    rtc-board.o(i.RtcEnterLowPowerStopMode) refers to stm32l1xx_pwr.o(i.PWR_PVDCmd) for PWR_PVDCmd
    rtc-board.o(i.RtcEnterLowPowerStopMode) refers to stm32l1xx_pwr.o(i.PWR_UltraLowPowerCmd) for PWR_UltraLowPowerCmd
    rtc-board.o(i.RtcEnterLowPowerStopMode) refers to stm32l1xx_pwr.o(i.PWR_FastWakeUpCmd) for PWR_FastWakeUpCmd
    rtc-board.o(i.RtcEnterLowPowerStopMode) refers to stm32l1xx_pwr.o(i.PWR_EnterSTOPMode) for PWR_EnterSTOPMode
    rtc-board.o(i.RtcEnterLowPowerStopMode) refers to rtc-board.o(.data) for .data
    rtc-board.o(i.RtcGetCalendarValue) refers to stm32l1xx_rtc.o(i.RTC_GetTime) for RTC_GetTime
    rtc-board.o(i.RtcGetCalendarValue) refers to stm32l1xx_rtc.o(i.RTC_GetDate) for RTC_GetDate
    rtc-board.o(i.RtcGetCalendarValue) refers to stm32l1xx_rtc.o(i.RTC_WaitForSynchro) for RTC_WaitForSynchro
    rtc-board.o(i.RtcGetCalendarValue) refers to rtc-board.o(.data) for .data
    rtc-board.o(i.RtcGetCalendarValue) refers to rtc-board.o(.constdata) for .constdata
    rtc-board.o(i.RtcGetTimerElapsedTime) refers to rtc-board.o(i.RtcGetCalendarValue) for RtcGetCalendarValue
    rtc-board.o(i.RtcGetTimerElapsedTime) refers to dfltul.o(.text) for __aeabi_ul2d
    rtc-board.o(i.RtcGetTimerElapsedTime) refers to dmul.o(.text) for __aeabi_dmul
    rtc-board.o(i.RtcGetTimerElapsedTime) refers to ceil.o(i.ceil) for ceil
    rtc-board.o(i.RtcGetTimerElapsedTime) refers to dfixui.o(.text) for __aeabi_d2uiz
    rtc-board.o(i.RtcGetTimerElapsedTime) refers to rtc-board.o(.data) for .data
    rtc-board.o(i.RtcGetTimerValue) refers to rtc-board.o(i.RtcGetCalendarValue) for RtcGetCalendarValue
    rtc-board.o(i.RtcGetTimerValue) refers to dfltul.o(.text) for __aeabi_ul2d
    rtc-board.o(i.RtcGetTimerValue) refers to dmul.o(.text) for __aeabi_dmul
    rtc-board.o(i.RtcGetTimerValue) refers to dfixul.o(.text) for __aeabi_d2ulz
    rtc-board.o(i.RtcInit) refers to rtc-board.o(i.RtcSetConfig) for RtcSetConfig
    rtc-board.o(i.RtcInit) refers to rtc-board.o(i.RtcSetAlarmConfig) for RtcSetAlarmConfig
    rtc-board.o(i.RtcInit) refers to rtc-board.o(.data) for .data
    rtc-board.o(i.RtcRecoverMcuStatus) refers to timer.o(i.TimerGetLowPowerEnable) for TimerGetLowPowerEnable
    rtc-board.o(i.RtcRecoverMcuStatus) refers to stm32l1xx_rcc.o(i.RCC_HSEConfig) for RCC_HSEConfig
    rtc-board.o(i.RtcRecoverMcuStatus) refers to stm32l1xx_rcc.o(i.RCC_GetFlagStatus) for RCC_GetFlagStatus
    rtc-board.o(i.RtcRecoverMcuStatus) refers to stm32l1xx_rcc.o(i.RCC_PLLCmd) for RCC_PLLCmd
    rtc-board.o(i.RtcRecoverMcuStatus) refers to stm32l1xx_rcc.o(i.RCC_SYSCLKConfig) for RCC_SYSCLKConfig
    rtc-board.o(i.RtcRecoverMcuStatus) refers to stm32l1xx_rcc.o(i.RCC_GetSYSCLKSource) for RCC_GetSYSCLKSource
    rtc-board.o(i.RtcRecoverMcuStatus) refers to stm32l1xx_pwr.o(i.PWR_UltraLowPowerCmd) for PWR_UltraLowPowerCmd
    rtc-board.o(i.RtcRecoverMcuStatus) refers to stm32l1xx_pwr.o(i.PWR_PVDCmd) for PWR_PVDCmd
    rtc-board.o(i.RtcRecoverMcuStatus) refers to board.o(i.BoardInitMcu) for BoardInitMcu
    rtc-board.o(i.RtcRecoverMcuStatus) refers to rtc-board.o(.data) for .data
    rtc-board.o(i.RtcSetAlarmConfig) refers to stm32l1xx_exti.o(i.EXTI_ClearITPendingBit) for EXTI_ClearITPendingBit
    rtc-board.o(i.RtcSetAlarmConfig) refers to stm32l1xx_exti.o(i.EXTI_Init) for EXTI_Init
    rtc-board.o(i.RtcSetAlarmConfig) refers to misc.o(i.NVIC_Init) for NVIC_Init
    rtc-board.o(i.RtcSetAlarmConfig) refers to stm32l1xx_rtc.o(i.RTC_SetAlarm) for RTC_SetAlarm
    rtc-board.o(i.RtcSetAlarmConfig) refers to stm32l1xx_rtc.o(i.RTC_ITConfig) for RTC_ITConfig
    rtc-board.o(i.RtcSetAlarmConfig) refers to stm32l1xx_rtc.o(i.RTC_AlarmCmd) for RTC_AlarmCmd
    rtc-board.o(i.RtcSetConfig) refers to stm32l1xx_rcc.o(i.RCC_APB1PeriphClockCmd) for RCC_APB1PeriphClockCmd
    rtc-board.o(i.RtcSetConfig) refers to stm32l1xx_pwr.o(i.PWR_RTCAccessCmd) for PWR_RTCAccessCmd
    rtc-board.o(i.RtcSetConfig) refers to stm32l1xx_rcc.o(i.RCC_RTCResetCmd) for RCC_RTCResetCmd
    rtc-board.o(i.RtcSetConfig) refers to stm32l1xx_rcc.o(i.RCC_LSEConfig) for RCC_LSEConfig
    rtc-board.o(i.RtcSetConfig) refers to stm32l1xx_rcc.o(i.RCC_GetFlagStatus) for RCC_GetFlagStatus
    rtc-board.o(i.RtcSetConfig) refers to stm32l1xx_rcc.o(i.RCC_RTCCLKConfig) for RCC_RTCCLKConfig
    rtc-board.o(i.RtcSetConfig) refers to stm32l1xx_rcc.o(i.RCC_RTCCLKCmd) for RCC_RTCCLKCmd
    rtc-board.o(i.RtcSetConfig) refers to stm32l1xx_rtc.o(i.RTC_TimeStructInit) for RTC_TimeStructInit
    rtc-board.o(i.RtcSetConfig) refers to stm32l1xx_rtc.o(i.RTC_DateStructInit) for RTC_DateStructInit
    rtc-board.o(i.RtcSetConfig) refers to stm32l1xx_rtc.o(i.RTC_SetDate) for RTC_SetDate
    rtc-board.o(i.RtcSetConfig) refers to stm32l1xx_rtc.o(i.RTC_SetTime) for RTC_SetTime
    rtc-board.o(i.RtcSetConfig) refers to stm32l1xx_rtc.o(i.RTC_WaitForSynchro) for RTC_WaitForSynchro
    rtc-board.o(i.RtcSetConfig) refers to stm32l1xx_rtc.o(i.RTC_Init) for RTC_Init
    rtc-board.o(i.RtcSetTimeout) refers to dfltui.o(.text) for __aeabi_ui2d
    rtc-board.o(i.RtcSetTimeout) refers to cdcmple.o(.text) for __aeabi_cdcmple
    rtc-board.o(i.RtcSetTimeout) refers to rtc-board.o(i.RtcStartWakeUpAlarm) for RtcStartWakeUpAlarm
    rtc-board.o(i.RtcSetTimeout) refers to rtc-board.o(.data) for .data
    rtc-board.o(i.RtcStartWakeUpAlarm) refers to rtc-board.o(i.RtcClearStatus) for RtcClearStatus
    rtc-board.o(i.RtcStartWakeUpAlarm) refers to rtc-board.o(i.RtcGetCalendarValue) for RtcGetCalendarValue
    rtc-board.o(i.RtcStartWakeUpAlarm) refers to stm32l1xx_rtc.o(i.RTC_GetTime) for RTC_GetTime
    rtc-board.o(i.RtcStartWakeUpAlarm) refers to stm32l1xx_rtc.o(i.RTC_GetDate) for RTC_GetDate
    rtc-board.o(i.RtcStartWakeUpAlarm) refers to dfltui.o(.text) for __aeabi_ui2d
    rtc-board.o(i.RtcStartWakeUpAlarm) refers to ddiv.o(.text) for __aeabi_ddiv
    rtc-board.o(i.RtcStartWakeUpAlarm) refers to dfixui.o(.text) for __aeabi_d2uiz
    rtc-board.o(i.RtcStartWakeUpAlarm) refers to stm32l1xx_rtc.o(i.RTC_SetAlarm) for RTC_SetAlarm
    rtc-board.o(i.RtcStartWakeUpAlarm) refers to stm32l1xx_rtc.o(i.RTC_WaitForSynchro) for RTC_WaitForSynchro
    rtc-board.o(i.RtcStartWakeUpAlarm) refers to stm32l1xx_rtc.o(i.RTC_ITConfig) for RTC_ITConfig
    rtc-board.o(i.RtcStartWakeUpAlarm) refers to stm32l1xx_rtc.o(i.RTC_AlarmCmd) for RTC_AlarmCmd
    rtc-board.o(i.RtcStartWakeUpAlarm) refers to rtc-board.o(.data) for .data
    rtc-board.o(i.RtcStartWakeUpAlarm) refers to rtc-board.o(.constdata) for .constdata
    rtc-board.o(i.RtcStopTimer) refers to rtc-board.o(i.RtcClearStatus) for RtcClearStatus
    spi-board.o(i.SpiDeInit) refers to stm32l1xx_spi.o(i.SPI_Cmd) for SPI_Cmd
    spi-board.o(i.SpiDeInit) refers to stm32l1xx_spi.o(i.SPI_I2S_DeInit) for SPI_I2S_DeInit
    spi-board.o(i.SpiDeInit) refers to gpio.o(i.GpioInit) for GpioInit
    spi-board.o(i.SpiFormat) refers to stm32l1xx_spi.o(i.SPI_Cmd) for SPI_Cmd
    spi-board.o(i.SpiFormat) refers to stm32l1xx_spi.o(i.SPI_Init) for SPI_Init
    spi-board.o(i.SpiFormat) refers to spi-board.o(.bss) for .bss
    spi-board.o(i.SpiFrequency) refers to stm32l1xx_spi.o(i.SPI_Cmd) for SPI_Cmd
    spi-board.o(i.SpiFrequency) refers to stm32l1xx_spi.o(i.SPI_Init) for SPI_Init
    spi-board.o(i.SpiFrequency) refers to system_stm32l1xx.o(.data) for SystemCoreClock
    spi-board.o(i.SpiFrequency) refers to spi-board.o(.bss) for .bss
    spi-board.o(i.SpiInOut) refers to stm32l1xx_spi.o(i.SPI_I2S_GetFlagStatus) for SPI_I2S_GetFlagStatus
    spi-board.o(i.SpiInOut) refers to stm32l1xx_spi.o(i.SPI_I2S_SendData) for SPI_I2S_SendData
    spi-board.o(i.SpiInOut) refers to stm32l1xx_spi.o(i.SPI_I2S_ReceiveData) for SPI_I2S_ReceiveData
    spi-board.o(i.SpiInit) refers to stm32l1xx_spi.o(i.SPI_StructInit) for SPI_StructInit
    spi-board.o(i.SpiInit) refers to gpio.o(i.GpioInit) for GpioInit
    spi-board.o(i.SpiInit) refers to stm32l1xx_gpio.o(i.GPIO_PinAFConfig) for GPIO_PinAFConfig
    spi-board.o(i.SpiInit) refers to stm32l1xx_rcc.o(i.RCC_APB2PeriphClockCmd) for RCC_APB2PeriphClockCmd
    spi-board.o(i.SpiInit) refers to spi-board.o(i.SpiFormat) for SpiFormat
    spi-board.o(i.SpiInit) refers to spi-board.o(i.SpiFrequency) for SpiFrequency
    spi-board.o(i.SpiInit) refers to stm32l1xx_spi.o(i.SPI_Cmd) for SPI_Cmd
    spi-board.o(i.SpiInit) refers to spi-board.o(.bss) for .bss
    sx1272-board.o(i.SX1272AntSwDeInit) refers to gpio.o(i.GpioInit) for GpioInit
    sx1272-board.o(i.SX1272AntSwDeInit) refers to sx1272-board.o(.bss) for .bss
    sx1272-board.o(i.SX1272AntSwInit) refers to gpio.o(i.GpioInit) for GpioInit
    sx1272-board.o(i.SX1272AntSwInit) refers to sx1272-board.o(.bss) for .bss
    sx1272-board.o(i.SX1272IoDeInit) refers to gpio.o(i.GpioInit) for GpioInit
    sx1272-board.o(i.SX1272IoDeInit) refers to sx1272.o(.bss) for SX1272
    sx1272-board.o(i.SX1272IoInit) refers to gpio.o(i.GpioInit) for GpioInit
    sx1272-board.o(i.SX1272IoInit) refers to sx1272.o(.bss) for SX1272
    sx1272-board.o(i.SX1272IoIrqInit) refers to gpio.o(i.GpioSetInterrupt) for GpioSetInterrupt
    sx1272-board.o(i.SX1272IoIrqInit) refers to sx1272.o(.bss) for SX1272
    sx1272-board.o(i.SX1272SetAntSw) refers to gpio.o(i.GpioWrite) for GpioWrite
    sx1272-board.o(i.SX1272SetAntSw) refers to sx1272.o(.bss) for SX1272
    sx1272-board.o(i.SX1272SetAntSw) refers to sx1272-board.o(.bss) for .bss
    sx1272-board.o(i.SX1272SetAntSwLowPower) refers to sx1272-board.o(i.SX1272AntSwDeInit) for SX1272AntSwDeInit
    sx1272-board.o(i.SX1272SetAntSwLowPower) refers to sx1272-board.o(i.SX1272AntSwInit) for SX1272AntSwInit
    sx1272-board.o(i.SX1272SetAntSwLowPower) refers to sx1272-board.o(.data) for .data
    sx1272-board.o(.constdata) refers to sx1272.o(i.SX1272Init) for SX1272Init
    sx1272-board.o(.constdata) refers to sx1272.o(i.SX1272GetStatus) for SX1272GetStatus
    sx1272-board.o(.constdata) refers to sx1272.o(i.SX1272SetModem) for SX1272SetModem
    sx1272-board.o(.constdata) refers to sx1272.o(i.SX1272SetChannel) for SX1272SetChannel
    sx1272-board.o(.constdata) refers to sx1272.o(i.SX1272IsChannelFree) for SX1272IsChannelFree
    sx1272-board.o(.constdata) refers to sx1272.o(i.SX1272Random) for SX1272Random
    sx1272-board.o(.constdata) refers to sx1272.o(i.SX1272SetRxConfig) for SX1272SetRxConfig
    sx1272-board.o(.constdata) refers to sx1272.o(i.SX1272SetTxConfig) for SX1272SetTxConfig
    sx1272-board.o(.constdata) refers to sx1272-board.o(i.SX1272CheckRfFrequency) for SX1272CheckRfFrequency
    sx1272-board.o(.constdata) refers to sx1272.o(i.SX1272GetTimeOnAir) for SX1272GetTimeOnAir
    sx1272-board.o(.constdata) refers to sx1272.o(i.SX1272Send) for SX1272Send
    sx1272-board.o(.constdata) refers to sx1272.o(i.SX1272SetSleep) for SX1272SetSleep
    sx1272-board.o(.constdata) refers to sx1272.o(i.SX1272SetStby) for SX1272SetStby
    sx1272-board.o(.constdata) refers to sx1272.o(i.SX1272SetRx) for SX1272SetRx
    sx1272-board.o(.constdata) refers to sx1272.o(i.SX1272StartCad) for SX1272StartCad
    sx1272-board.o(.constdata) refers to sx1272.o(i.SX1272ReadRssi) for SX1272ReadRssi
    sx1272-board.o(.constdata) refers to sx1272.o(i.SX1272Write) for SX1272Write
    sx1272-board.o(.constdata) refers to sx1272.o(i.SX1272Read) for SX1272Read
    sx1272-board.o(.constdata) refers to sx1272.o(i.SX1272WriteBuffer) for SX1272WriteBuffer
    sx1272-board.o(.constdata) refers to sx1272.o(i.SX1272ReadBuffer) for SX1272ReadBuffer
    sx1272-board.o(.constdata) refers to sx1272.o(i.SX1272SetMaxPayloadLength) for SX1272SetMaxPayloadLength
    timer-board.o(i.TIM2_IRQHandler) refers to stm32l1xx_tim.o(i.TIM_GetITStatus) for TIM_GetITStatus
    timer-board.o(i.TIM2_IRQHandler) refers to timer-board.o(i.TimerIncrementTickCounter) for TimerIncrementTickCounter
    timer-board.o(i.TIM2_IRQHandler) refers to stm32l1xx_tim.o(i.TIM_ClearITPendingBit) for TIM_ClearITPendingBit
    timer-board.o(i.TIM2_IRQHandler) refers to timer.o(i.TimerIrqHandler) for TimerIrqHandler
    timer-board.o(i.TIM2_IRQHandler) refers to timer-board.o(.data) for .data
    timer-board.o(i.TIM3_IRQHandler) refers to stm32l1xx_tim.o(i.TIM_GetITStatus) for TIM_GetITStatus
    timer-board.o(i.TIM3_IRQHandler) refers to timer-board.o(i.TimerIncrementDelayCounter) for TimerIncrementDelayCounter
    timer-board.o(i.TIM3_IRQHandler) refers to stm32l1xx_tim.o(i.TIM_ClearITPendingBit) for TIM_ClearITPendingBit
    timer-board.o(i.TimerHwDeInit) refers to stm32l1xx_tim.o(i.TIM_DeInit) for TIM_DeInit
    timer-board.o(i.TimerHwDelayMs) refers to timer-board.o(i.TimerHwGetDelayValue) for TimerHwGetDelayValue
    timer-board.o(i.TimerHwGetDelayValue) refers to timer-board.o(.data) for .data
    timer-board.o(i.TimerHwGetElapsedTime) refers to timer-board.o(i.TimerHwGetTimerValue) for TimerHwGetTimerValue
    timer-board.o(i.TimerHwGetElapsedTime) refers to timer-board.o(.data) for .data
    timer-board.o(i.TimerHwGetTime) refers to timer-board.o(i.TimerHwGetTimerValue) for TimerHwGetTimerValue
    timer-board.o(i.TimerHwGetTimerValue) refers to timer-board.o(.data) for .data
    timer-board.o(i.TimerHwInit) refers to stm32l1xx_rcc.o(i.RCC_APB1PeriphClockCmd) for RCC_APB1PeriphClockCmd
    timer-board.o(i.TimerHwInit) refers to misc.o(i.NVIC_Init) for NVIC_Init
    timer-board.o(i.TimerHwInit) refers to stm32l1xx_tim.o(i.TIM_TimeBaseInit) for TIM_TimeBaseInit
    timer-board.o(i.TimerHwInit) refers to stm32l1xx_tim.o(i.TIM_ITConfig) for TIM_ITConfig
    timer-board.o(i.TimerHwInit) refers to stm32l1xx_tim.o(i.TIM_Cmd) for TIM_Cmd
    timer-board.o(i.TimerHwInit) refers to timer-board.o(.data) for .data
    timer-board.o(i.TimerHwStart) refers to timer-board.o(i.TimerHwGetTimerValue) for TimerHwGetTimerValue
    timer-board.o(i.TimerHwStart) refers to timer-board.o(.data) for .data
    timer-board.o(i.TimerHwStop) refers to stm32l1xx_tim.o(i.TIM_ITConfig) for TIM_ITConfig
    timer-board.o(i.TimerHwStop) refers to stm32l1xx_tim.o(i.TIM_Cmd) for TIM_Cmd
    timer-board.o(i.TimerIncrementDelayCounter) refers to timer-board.o(.data) for .data
    timer-board.o(i.TimerIncrementTickCounter) refers to timer-board.o(.data) for .data
    uart-board.o(i.USART1_IRQHandler) refers to stm32l1xx_usart.o(i.USART_GetITStatus) for USART_GetITStatus
    uart-board.o(i.USART1_IRQHandler) refers to fifo.o(i.IsFifoEmpty) for IsFifoEmpty
    uart-board.o(i.USART1_IRQHandler) refers to stm32l1xx_usart.o(i.USART_ITConfig) for USART_ITConfig
    uart-board.o(i.USART1_IRQHandler) refers to stm32l1xx_usart.o(i.USART_ReceiveData) for USART_ReceiveData
    uart-board.o(i.USART1_IRQHandler) refers to fifo.o(i.IsFifoFull) for IsFifoFull
    uart-board.o(i.USART1_IRQHandler) refers to fifo.o(i.FifoPop) for FifoPop
    uart-board.o(i.USART1_IRQHandler) refers to stm32l1xx_usart.o(i.USART_SendData) for USART_SendData
    uart-board.o(i.USART1_IRQHandler) refers to fifo.o(i.FifoPush) for FifoPush
    uart-board.o(i.USART1_IRQHandler) refers to board.o(.bss) for Uart1
    uart-board.o(i.UartMcuConfig) refers to misc.o(i.NVIC_Init) for NVIC_Init
    uart-board.o(i.UartMcuConfig) refers to stm32l1xx_usart.o(i.USART_ITConfig) for USART_ITConfig
    uart-board.o(i.UartMcuConfig) refers to stm32l1xx_usart.o(i.USART_Init) for USART_Init
    uart-board.o(i.UartMcuConfig) refers to stm32l1xx_usart.o(i.USART_Cmd) for USART_Cmd
    uart-board.o(i.UartMcuDeInit) refers to stm32l1xx_usart.o(i.USART_DeInit) for USART_DeInit
    uart-board.o(i.UartMcuDeInit) refers to gpio.o(i.GpioInit) for GpioInit
    uart-board.o(i.UartMcuGetChar) refers to fifo.o(i.IsFifoEmpty) for IsFifoEmpty
    uart-board.o(i.UartMcuGetChar) refers to fifo.o(i.FifoPop) for FifoPop
    uart-board.o(i.UartMcuInit) refers to stm32l1xx_rcc.o(i.RCC_APB2PeriphClockCmd) for RCC_APB2PeriphClockCmd
    uart-board.o(i.UartMcuInit) refers to stm32l1xx_usart.o(i.USART_DeInit) for USART_DeInit
    uart-board.o(i.UartMcuInit) refers to gpio.o(i.GpioInit) for GpioInit
    uart-board.o(i.UartMcuInit) refers to stm32l1xx_gpio.o(i.GPIO_PinAFConfig) for GPIO_PinAFConfig
    uart-board.o(i.UartMcuPutChar) refers to fifo.o(i.IsFifoFull) for IsFifoFull
    uart-board.o(i.UartMcuPutChar) refers to fifo.o(i.FifoPush) for FifoPush
    uart-board.o(i.UartMcuPutChar) refers to stm32l1xx_usart.o(i.USART_ITConfig) for USART_ITConfig
    startup_stm32l1xx_md.o(RESET) refers to startup_stm32l1xx_md.o(STACK) for __initial_sp
    startup_stm32l1xx_md.o(RESET) refers to startup_stm32l1xx_md.o(.text) for Reset_Handler
    startup_stm32l1xx_md.o(RESET) refers to sysirqhandlers.o(i.NMI_Handler) for NMI_Handler
    startup_stm32l1xx_md.o(RESET) refers to sysirqhandlers.o(i.MemManage_Handler) for MemManage_Handler
    startup_stm32l1xx_md.o(RESET) refers to sysirqhandlers.o(i.BusFault_Handler) for BusFault_Handler
    startup_stm32l1xx_md.o(RESET) refers to sysirqhandlers.o(i.UsageFault_Handler) for UsageFault_Handler
    startup_stm32l1xx_md.o(RESET) refers to sysirqhandlers.o(i.DebugMon_Handler) for DebugMon_Handler
    startup_stm32l1xx_md.o(RESET) refers to gpio-board.o(i.EXTI0_IRQHandler) for EXTI0_IRQHandler
    startup_stm32l1xx_md.o(RESET) refers to gpio-board.o(i.EXTI1_IRQHandler) for EXTI1_IRQHandler
    startup_stm32l1xx_md.o(RESET) refers to gpio-board.o(i.EXTI2_IRQHandler) for EXTI2_IRQHandler
    startup_stm32l1xx_md.o(RESET) refers to gpio-board.o(i.EXTI3_IRQHandler) for EXTI3_IRQHandler
    startup_stm32l1xx_md.o(RESET) refers to gpio-board.o(i.EXTI4_IRQHandler) for EXTI4_IRQHandler
    startup_stm32l1xx_md.o(RESET) refers to gpio-board.o(i.EXTI9_5_IRQHandler) for EXTI9_5_IRQHandler
    startup_stm32l1xx_md.o(RESET) refers to timer-board.o(i.TIM2_IRQHandler) for TIM2_IRQHandler
    startup_stm32l1xx_md.o(RESET) refers to timer-board.o(i.TIM3_IRQHandler) for TIM3_IRQHandler
    startup_stm32l1xx_md.o(RESET) refers to uart-board.o(i.USART1_IRQHandler) for USART1_IRQHandler
    startup_stm32l1xx_md.o(RESET) refers to gpio-board.o(i.EXTI15_10_IRQHandler) for EXTI15_10_IRQHandler
    startup_stm32l1xx_md.o(RESET) refers to rtc-board.o(i.RTC_Alarm_IRQHandler) for RTC_Alarm_IRQHandler
    startup_stm32l1xx_md.o(.text) refers to system_stm32l1xx.o(i.SystemInit) for SystemInit
    startup_stm32l1xx_md.o(.text) refers to entry.o(.ARM.Collect$$$$00000000) for __main
    system_stm32l1xx.o(i.SystemCoreClockUpdate) refers to system_stm32l1xx.o(.data) for .data
    system_stm32l1xx.o(i.SystemInit) refers to system_stm32l1xx.o(i.SetSysClock) for SetSysClock
    stm32l1xx_adc.o(i.ADC_DeInit) refers to stm32l1xx_rcc.o(i.RCC_APB2PeriphResetCmd) for RCC_APB2PeriphResetCmd
    stm32l1xx_gpio.o(i.GPIO_DeInit) refers to stm32l1xx_rcc.o(i.RCC_AHBPeriphResetCmd) for RCC_AHBPeriphResetCmd
    stm32l1xx_i2c.o(i.I2C_DeInit) refers to stm32l1xx_rcc.o(i.RCC_APB1PeriphResetCmd) for RCC_APB1PeriphResetCmd
    stm32l1xx_i2c.o(i.I2C_Init) refers to stm32l1xx_rcc.o(i.RCC_GetClocksFreq) for RCC_GetClocksFreq
    stm32l1xx_pwr.o(i.PWR_DeInit) refers to stm32l1xx_rcc.o(i.RCC_APB1PeriphResetCmd) for RCC_APB1PeriphResetCmd
    stm32l1xx_rcc.o(i.RCC_GetClocksFreq) refers to stm32l1xx_rcc.o(.data) for .data
    stm32l1xx_rcc.o(i.RCC_WaitForHSEStartUp) refers to stm32l1xx_rcc.o(i.RCC_GetFlagStatus) for RCC_GetFlagStatus
    stm32l1xx_rtc.o(i.RTC_CoarseCalibCmd) refers to stm32l1xx_rtc.o(i.RTC_EnterInitMode) for RTC_EnterInitMode
    stm32l1xx_rtc.o(i.RTC_CoarseCalibCmd) refers to stm32l1xx_rtc.o(i.RTC_ExitInitMode) for RTC_ExitInitMode
    stm32l1xx_rtc.o(i.RTC_CoarseCalibConfig) refers to stm32l1xx_rtc.o(i.RTC_EnterInitMode) for RTC_EnterInitMode
    stm32l1xx_rtc.o(i.RTC_CoarseCalibConfig) refers to stm32l1xx_rtc.o(i.RTC_ExitInitMode) for RTC_ExitInitMode
    stm32l1xx_rtc.o(i.RTC_DeInit) refers to stm32l1xx_rtc.o(i.RTC_EnterInitMode) for RTC_EnterInitMode
    stm32l1xx_rtc.o(i.RTC_DeInit) refers to stm32l1xx_rtc.o(i.RTC_WaitForSynchro) for RTC_WaitForSynchro
    stm32l1xx_rtc.o(i.RTC_GetAlarm) refers to stm32l1xx_rtc.o(i.RTC_Bcd2ToByte) for RTC_Bcd2ToByte
    stm32l1xx_rtc.o(i.RTC_GetDate) refers to stm32l1xx_rtc.o(i.RTC_Bcd2ToByte) for RTC_Bcd2ToByte
    stm32l1xx_rtc.o(i.RTC_GetTime) refers to stm32l1xx_rtc.o(i.RTC_Bcd2ToByte) for RTC_Bcd2ToByte
    stm32l1xx_rtc.o(i.RTC_GetTimeStamp) refers to stm32l1xx_rtc.o(i.RTC_Bcd2ToByte) for RTC_Bcd2ToByte
    stm32l1xx_rtc.o(i.RTC_Init) refers to stm32l1xx_rtc.o(i.RTC_EnterInitMode) for RTC_EnterInitMode
    stm32l1xx_rtc.o(i.RTC_Init) refers to stm32l1xx_rtc.o(i.RTC_ExitInitMode) for RTC_ExitInitMode
    stm32l1xx_rtc.o(i.RTC_RefClockCmd) refers to stm32l1xx_rtc.o(i.RTC_EnterInitMode) for RTC_EnterInitMode
    stm32l1xx_rtc.o(i.RTC_RefClockCmd) refers to stm32l1xx_rtc.o(i.RTC_ExitInitMode) for RTC_ExitInitMode
    stm32l1xx_rtc.o(i.RTC_SetAlarm) refers to stm32l1xx_rtc.o(i.RTC_Bcd2ToByte) for RTC_Bcd2ToByte
    stm32l1xx_rtc.o(i.RTC_SetAlarm) refers to stm32l1xx_rtc.o(i.RTC_ByteToBcd2) for RTC_ByteToBcd2
    stm32l1xx_rtc.o(i.RTC_SetDate) refers to stm32l1xx_rtc.o(i.RTC_Bcd2ToByte) for RTC_Bcd2ToByte
    stm32l1xx_rtc.o(i.RTC_SetDate) refers to stm32l1xx_rtc.o(i.RTC_ByteToBcd2) for RTC_ByteToBcd2
    stm32l1xx_rtc.o(i.RTC_SetDate) refers to stm32l1xx_rtc.o(i.RTC_EnterInitMode) for RTC_EnterInitMode
    stm32l1xx_rtc.o(i.RTC_SetDate) refers to stm32l1xx_rtc.o(i.RTC_ExitInitMode) for RTC_ExitInitMode
    stm32l1xx_rtc.o(i.RTC_SetDate) refers to stm32l1xx_rtc.o(i.RTC_WaitForSynchro) for RTC_WaitForSynchro
    stm32l1xx_rtc.o(i.RTC_SetTime) refers to stm32l1xx_rtc.o(i.RTC_Bcd2ToByte) for RTC_Bcd2ToByte
    stm32l1xx_rtc.o(i.RTC_SetTime) refers to stm32l1xx_rtc.o(i.RTC_ByteToBcd2) for RTC_ByteToBcd2
    stm32l1xx_rtc.o(i.RTC_SetTime) refers to stm32l1xx_rtc.o(i.RTC_EnterInitMode) for RTC_EnterInitMode
    stm32l1xx_rtc.o(i.RTC_SetTime) refers to stm32l1xx_rtc.o(i.RTC_ExitInitMode) for RTC_ExitInitMode
    stm32l1xx_rtc.o(i.RTC_SetTime) refers to stm32l1xx_rtc.o(i.RTC_WaitForSynchro) for RTC_WaitForSynchro
    stm32l1xx_rtc.o(i.RTC_SynchroShiftConfig) refers to stm32l1xx_rtc.o(i.RTC_WaitForSynchro) for RTC_WaitForSynchro
    stm32l1xx_spi.o(i.I2S_Init) refers to stm32l1xx_rcc.o(i.RCC_GetClocksFreq) for RCC_GetClocksFreq
    stm32l1xx_spi.o(i.SPI_I2S_DeInit) refers to stm32l1xx_rcc.o(i.RCC_APB2PeriphResetCmd) for RCC_APB2PeriphResetCmd
    stm32l1xx_spi.o(i.SPI_I2S_DeInit) refers to stm32l1xx_rcc.o(i.RCC_APB1PeriphResetCmd) for RCC_APB1PeriphResetCmd
    stm32l1xx_syscfg.o(i.SYSCFG_DeInit) refers to stm32l1xx_rcc.o(i.RCC_APB2PeriphResetCmd) for RCC_APB2PeriphResetCmd
    stm32l1xx_tim.o(i.TIM_DeInit) refers to stm32l1xx_rcc.o(i.RCC_APB1PeriphResetCmd) for RCC_APB1PeriphResetCmd
    stm32l1xx_tim.o(i.TIM_DeInit) refers to stm32l1xx_rcc.o(i.RCC_APB2PeriphResetCmd) for RCC_APB2PeriphResetCmd
    stm32l1xx_tim.o(i.TIM_ETRClockMode1Config) refers to stm32l1xx_tim.o(i.TIM_ETRConfig) for TIM_ETRConfig
    stm32l1xx_tim.o(i.TIM_ETRClockMode2Config) refers to stm32l1xx_tim.o(i.TIM_ETRConfig) for TIM_ETRConfig
    stm32l1xx_tim.o(i.TIM_ICInit) refers to stm32l1xx_tim.o(i.TI4_Config) for TI4_Config
    stm32l1xx_tim.o(i.TIM_ICInit) refers to stm32l1xx_tim.o(i.TIM_SetIC4Prescaler) for TIM_SetIC4Prescaler
    stm32l1xx_tim.o(i.TIM_ICInit) refers to stm32l1xx_tim.o(i.TI1_Config) for TI1_Config
    stm32l1xx_tim.o(i.TIM_ICInit) refers to stm32l1xx_tim.o(i.TIM_SetIC1Prescaler) for TIM_SetIC1Prescaler
    stm32l1xx_tim.o(i.TIM_ICInit) refers to stm32l1xx_tim.o(i.TI2_Config) for TI2_Config
    stm32l1xx_tim.o(i.TIM_ICInit) refers to stm32l1xx_tim.o(i.TIM_SetIC2Prescaler) for TIM_SetIC2Prescaler
    stm32l1xx_tim.o(i.TIM_ICInit) refers to stm32l1xx_tim.o(i.TI3_Config) for TI3_Config
    stm32l1xx_tim.o(i.TIM_ICInit) refers to stm32l1xx_tim.o(i.TIM_SetIC3Prescaler) for TIM_SetIC3Prescaler
    stm32l1xx_tim.o(i.TIM_ITRxExternalClockConfig) refers to stm32l1xx_tim.o(i.TIM_SelectInputTrigger) for TIM_SelectInputTrigger
    stm32l1xx_tim.o(i.TIM_PWMIConfig) refers to stm32l1xx_tim.o(i.TI2_Config) for TI2_Config
    stm32l1xx_tim.o(i.TIM_PWMIConfig) refers to stm32l1xx_tim.o(i.TIM_SetIC2Prescaler) for TIM_SetIC2Prescaler
    stm32l1xx_tim.o(i.TIM_PWMIConfig) refers to stm32l1xx_tim.o(i.TI1_Config) for TI1_Config
    stm32l1xx_tim.o(i.TIM_PWMIConfig) refers to stm32l1xx_tim.o(i.TIM_SetIC1Prescaler) for TIM_SetIC1Prescaler
    stm32l1xx_tim.o(i.TIM_TIxExternalClockConfig) refers to stm32l1xx_tim.o(i.TI1_Config) for TI1_Config
    stm32l1xx_tim.o(i.TIM_TIxExternalClockConfig) refers to stm32l1xx_tim.o(i.TIM_SelectInputTrigger) for TIM_SelectInputTrigger
    stm32l1xx_tim.o(i.TIM_TIxExternalClockConfig) refers to stm32l1xx_tim.o(i.TI2_Config) for TI2_Config
    stm32l1xx_usart.o(i.USART_DeInit) refers to stm32l1xx_rcc.o(i.RCC_APB2PeriphResetCmd) for RCC_APB2PeriphResetCmd
    stm32l1xx_usart.o(i.USART_DeInit) refers to stm32l1xx_rcc.o(i.RCC_APB1PeriphResetCmd) for RCC_APB1PeriphResetCmd
    stm32l1xx_usart.o(i.USART_Init) refers to stm32l1xx_rcc.o(i.RCC_GetClocksFreq) for RCC_GetClocksFreq
    utilities.o(i.rand1) refers to utilities.o(.data) for .data
    utilities.o(i.randr) refers to utilities.o(i.rand1) for rand1
    utilities.o(i.srand1) refers to utilities.o(.data) for .data
    gpio-ioe.o(i.GpioIoeInit) refers to sx1509.o(i.SX1509Init) for SX1509Init
    gpio-ioe.o(i.GpioIoeInit) refers to sx1509.o(i.SX1509Read) for SX1509Read
    gpio-ioe.o(i.GpioIoeInit) refers to sx1509.o(i.SX1509Write) for SX1509Write
    gpio-ioe.o(i.GpioIoeRead) refers to sx1509.o(i.SX1509Read) for SX1509Read
    gpio-ioe.o(i.GpioIoeWrite) refers to sx1509.o(i.SX1509Read) for SX1509Read
    gpio-ioe.o(i.GpioIoeWrite) refers to sx1509.o(i.SX1509Write) for SX1509Write
    mag3110.o(i.MAG3110GetDeviceAddr) refers to mag3110.o(.data) for .data
    mag3110.o(i.MAG3110Init) refers to mag3110.o(i.MAG3110SetDeviceAddr) for MAG3110SetDeviceAddr
    mag3110.o(i.MAG3110Init) refers to mag3110.o(i.MAG3110Read) for MAG3110Read
    mag3110.o(i.MAG3110Init) refers to mag3110.o(i.MAG3110Reset) for MAG3110Reset
    mag3110.o(i.MAG3110Init) refers to mag3110.o(.data) for .data
    mag3110.o(i.MAG3110Read) refers to mag3110.o(i.MAG3110ReadBuffer) for MAG3110ReadBuffer
    mag3110.o(i.MAG3110ReadBuffer) refers to i2c.o(i.I2cReadBuffer) for I2cReadBuffer
    mag3110.o(i.MAG3110ReadBuffer) refers to mag3110.o(.data) for .data
    mag3110.o(i.MAG3110ReadBuffer) refers to board.o(.bss) for I2c
    mag3110.o(i.MAG3110Reset) refers to mag3110.o(i.MAG3110Write) for MAG3110Write
    mag3110.o(i.MAG3110SetDeviceAddr) refers to mag3110.o(.data) for .data
    mag3110.o(i.MAG3110Write) refers to mag3110.o(i.MAG3110WriteBuffer) for MAG3110WriteBuffer
    mag3110.o(i.MAG3110WriteBuffer) refers to i2c.o(i.I2cWriteBuffer) for I2cWriteBuffer
    mag3110.o(i.MAG3110WriteBuffer) refers to mag3110.o(.data) for .data
    mag3110.o(i.MAG3110WriteBuffer) refers to board.o(.bss) for I2c
    mma8451.o(i.MMA8451GetDeviceAddr) refers to mma8451.o(.data) for .data
    mma8451.o(i.MMA8451Init) refers to mma8451.o(i.MMA8451SetDeviceAddr) for MMA8451SetDeviceAddr
    mma8451.o(i.MMA8451Init) refers to mma8451.o(i.MMA8451Read) for MMA8451Read
    mma8451.o(i.MMA8451Init) refers to mma8451.o(i.MMA8451Reset) for MMA8451Reset
    mma8451.o(i.MMA8451Init) refers to mma8451.o(.data) for .data
    mma8451.o(i.MMA8451Read) refers to mma8451.o(i.MMA8451ReadBuffer) for MMA8451ReadBuffer
    mma8451.o(i.MMA8451ReadBuffer) refers to i2c.o(i.I2cReadBuffer) for I2cReadBuffer
    mma8451.o(i.MMA8451ReadBuffer) refers to mma8451.o(.data) for .data
    mma8451.o(i.MMA8451ReadBuffer) refers to board.o(.bss) for I2c
    mma8451.o(i.MMA8451Reset) refers to mma8451.o(i.MMA8451Write) for MMA8451Write
    mma8451.o(i.MMA8451SetDeviceAddr) refers to mma8451.o(.data) for .data
    mma8451.o(i.MMA8451Write) refers to mma8451.o(i.MMA8451WriteBuffer) for MMA8451WriteBuffer
    mma8451.o(i.MMA8451WriteBuffer) refers to i2c.o(i.I2cWriteBuffer) for I2cWriteBuffer
    mma8451.o(i.MMA8451WriteBuffer) refers to mma8451.o(.data) for .data
    mma8451.o(i.MMA8451WriteBuffer) refers to board.o(.bss) for I2c
    mpl3115.o(i.MPL3115GetDeviceAddr) refers to mpl3115.o(.data) for .data
    mpl3115.o(i.MPL3115Init) refers to mpl3115.o(i.MPL3115SetDeviceAddr) for MPL3115SetDeviceAddr
    mpl3115.o(i.MPL3115Init) refers to mpl3115.o(i.MPL3115Read) for MPL3115Read
    mpl3115.o(i.MPL3115Init) refers to mpl3115.o(i.MPL3115Reset) for MPL3115Reset
    mpl3115.o(i.MPL3115Init) refers to mpl3115.o(i.MPL3115Write) for MPL3115Write
    mpl3115.o(i.MPL3115Init) refers to mpl3115.o(i.MPL3115SetModeActive) for MPL3115SetModeActive
    mpl3115.o(i.MPL3115Init) refers to mpl3115.o(.data) for .data
    mpl3115.o(i.MPL3115Read) refers to mpl3115.o(i.MPL3115ReadBuffer) for MPL3115ReadBuffer
    mpl3115.o(i.MPL3115ReadAltitude) refers to mpl3115.o(i.MPL3115SetModeAltimeter) for MPL3115SetModeAltimeter
    mpl3115.o(i.MPL3115ReadAltitude) refers to mpl3115.o(i.MPL3115ToggleOneShot) for MPL3115ToggleOneShot
    mpl3115.o(i.MPL3115ReadAltitude) refers to mpl3115.o(i.MPL3115Read) for MPL3115Read
    mpl3115.o(i.MPL3115ReadAltitude) refers to delay.o(i.DelayMs) for DelayMs
    mpl3115.o(i.MPL3115ReadAltitude) refers to mpl3115.o(i.MPL3115Init) for MPL3115Init
    mpl3115.o(i.MPL3115ReadAltitude) refers to ffltui.o(.text) for __aeabi_ui2f
    mpl3115.o(i.MPL3115ReadAltitude) refers to fscalb.o(.text) for __ARM_scalbnf
    mpl3115.o(i.MPL3115ReadAltitude) refers to fflti.o(.text) for __aeabi_i2f
    mpl3115.o(i.MPL3115ReadAltitude) refers to fadd.o(.text) for __aeabi_fadd
    mpl3115.o(i.MPL3115ReadAltitude) refers to mpl3115.o(.data) for .data
    mpl3115.o(i.MPL3115ReadBuffer) refers to i2c.o(i.I2cReadBuffer) for I2cReadBuffer
    mpl3115.o(i.MPL3115ReadBuffer) refers to mpl3115.o(.data) for .data
    mpl3115.o(i.MPL3115ReadBuffer) refers to board.o(.bss) for I2c
    mpl3115.o(i.MPL3115ReadPressure) refers to mpl3115.o(i.MPL3115SetModeBarometer) for MPL3115SetModeBarometer
    mpl3115.o(i.MPL3115ReadPressure) refers to mpl3115.o(i.MPL3115ToggleOneShot) for MPL3115ToggleOneShot
    mpl3115.o(i.MPL3115ReadPressure) refers to mpl3115.o(i.MPL3115Read) for MPL3115Read
    mpl3115.o(i.MPL3115ReadPressure) refers to delay.o(i.DelayMs) for DelayMs
    mpl3115.o(i.MPL3115ReadPressure) refers to mpl3115.o(i.MPL3115Init) for MPL3115Init
    mpl3115.o(i.MPL3115ReadPressure) refers to ffltui.o(.text) for __aeabi_ui2f
    mpl3115.o(i.MPL3115ReadPressure) refers to fscalb.o(.text) for __ARM_scalbnf
    mpl3115.o(i.MPL3115ReadPressure) refers to fadd.o(.text) for __aeabi_fadd
    mpl3115.o(i.MPL3115ReadPressure) refers to mpl3115.o(.data) for .data
    mpl3115.o(i.MPL3115ReadTemperature) refers to mpl3115.o(i.MPL3115ToggleOneShot) for MPL3115ToggleOneShot
    mpl3115.o(i.MPL3115ReadTemperature) refers to mpl3115.o(i.MPL3115Read) for MPL3115Read
    mpl3115.o(i.MPL3115ReadTemperature) refers to delay.o(i.DelayMs) for DelayMs
    mpl3115.o(i.MPL3115ReadTemperature) refers to mpl3115.o(i.MPL3115Init) for MPL3115Init
    mpl3115.o(i.MPL3115ReadTemperature) refers to dfltui.o(.text) for __aeabi_ui2d
    mpl3115.o(i.MPL3115ReadTemperature) refers to dscalb.o(.text) for __ARM_scalbn
    mpl3115.o(i.MPL3115ReadTemperature) refers to d2f.o(.text) for __aeabi_d2f
    mpl3115.o(i.MPL3115ReadTemperature) refers to ffltui.o(.text) for __aeabi_ui2f
    mpl3115.o(i.MPL3115ReadTemperature) refers to fadd.o(.text) for __aeabi_fadd
    mpl3115.o(i.MPL3115ReadTemperature) refers to mpl3115.o(.data) for .data
    mpl3115.o(i.MPL3115Reset) refers to mpl3115.o(i.MPL3115Write) for MPL3115Write
    mpl3115.o(i.MPL3115SetDeviceAddr) refers to mpl3115.o(.data) for .data
    mpl3115.o(i.MPL3115SetModeActive) refers to mpl3115.o(i.MPL3115Read) for MPL3115Read
    mpl3115.o(i.MPL3115SetModeActive) refers to mpl3115.o(i.MPL3115Write) for MPL3115Write
    mpl3115.o(i.MPL3115SetModeAltimeter) refers to mpl3115.o(i.MPL3115SetModeStandby) for MPL3115SetModeStandby
    mpl3115.o(i.MPL3115SetModeAltimeter) refers to mpl3115.o(i.MPL3115Read) for MPL3115Read
    mpl3115.o(i.MPL3115SetModeAltimeter) refers to mpl3115.o(i.MPL3115Write) for MPL3115Write
    mpl3115.o(i.MPL3115SetModeAltimeter) refers to mpl3115.o(i.MPL3115SetModeActive) for MPL3115SetModeActive
    mpl3115.o(i.MPL3115SetModeBarometer) refers to mpl3115.o(i.MPL3115SetModeStandby) for MPL3115SetModeStandby
    mpl3115.o(i.MPL3115SetModeBarometer) refers to mpl3115.o(i.MPL3115Read) for MPL3115Read
    mpl3115.o(i.MPL3115SetModeBarometer) refers to mpl3115.o(i.MPL3115Write) for MPL3115Write
    mpl3115.o(i.MPL3115SetModeBarometer) refers to mpl3115.o(i.MPL3115SetModeActive) for MPL3115SetModeActive
    mpl3115.o(i.MPL3115SetModeStandby) refers to mpl3115.o(i.MPL3115Read) for MPL3115Read
    mpl3115.o(i.MPL3115SetModeStandby) refers to mpl3115.o(i.MPL3115Write) for MPL3115Write
    mpl3115.o(i.MPL3115ToggleOneShot) refers to mpl3115.o(i.MPL3115SetModeStandby) for MPL3115SetModeStandby
    mpl3115.o(i.MPL3115ToggleOneShot) refers to mpl3115.o(i.MPL3115Read) for MPL3115Read
    mpl3115.o(i.MPL3115ToggleOneShot) refers to mpl3115.o(i.MPL3115Write) for MPL3115Write
    mpl3115.o(i.MPL3115ToggleOneShot) refers to mpl3115.o(i.MPL3115SetModeActive) for MPL3115SetModeActive
    mpl3115.o(i.MPL3115Write) refers to mpl3115.o(i.MPL3115WriteBuffer) for MPL3115WriteBuffer
    mpl3115.o(i.MPL3115WriteBuffer) refers to i2c.o(i.I2cWriteBuffer) for I2cWriteBuffer
    mpl3115.o(i.MPL3115WriteBuffer) refers to mpl3115.o(.data) for .data
    mpl3115.o(i.MPL3115WriteBuffer) refers to board.o(.bss) for I2c
    sx1509.o(i.SX1509GetDeviceAddr) refers to sx1509.o(.data) for .data
    sx1509.o(i.SX1509Init) refers to sx1509.o(i.SX1509SetDeviceAddr) for SX1509SetDeviceAddr
    sx1509.o(i.SX1509Init) refers to sx1509.o(i.SX1509Reset) for SX1509Reset
    sx1509.o(i.SX1509Init) refers to sx1509.o(.data) for .data
    sx1509.o(i.SX1509Read) refers to sx1509.o(i.SX1509ReadBuffer) for SX1509ReadBuffer
    sx1509.o(i.SX1509ReadBuffer) refers to i2c.o(i.I2cReadBuffer) for I2cReadBuffer
    sx1509.o(i.SX1509ReadBuffer) refers to sx1509.o(.data) for .data
    sx1509.o(i.SX1509ReadBuffer) refers to board.o(.bss) for I2c
    sx1509.o(i.SX1509Reset) refers to sx1509.o(i.SX1509Write) for SX1509Write
    sx1509.o(i.SX1509SetDeviceAddr) refers to sx1509.o(.data) for .data
    sx1509.o(i.SX1509Write) refers to sx1509.o(i.SX1509WriteBuffer) for SX1509WriteBuffer
    sx1509.o(i.SX1509WriteBuffer) refers to i2c.o(i.I2cWriteBuffer) for I2cWriteBuffer
    sx1509.o(i.SX1509WriteBuffer) refers to sx1509.o(.data) for .data
    sx1509.o(i.SX1509WriteBuffer) refers to board.o(.bss) for I2c
    sx9500.o(i.SX9500GetDeviceAddr) refers to sx9500.o(.data) for .data
    sx9500.o(i.SX9500Init) refers to sx9500.o(i.SX9500SetDeviceAddr) for SX9500SetDeviceAddr
    sx9500.o(i.SX9500Init) refers to sx9500.o(i.SX9500Read) for SX9500Read
    sx9500.o(i.SX9500Init) refers to sx9500.o(i.SX9500Reset) for SX9500Reset
    sx9500.o(i.SX9500Init) refers to sx9500.o(.data) for .data
    sx9500.o(i.SX9500LockUntilDetection) refers to sx9500.o(i.SX9500Write) for SX9500Write
    sx9500.o(i.SX9500LockUntilDetection) refers to sx9500.o(i.SX9500Read) for SX9500Read
    sx9500.o(i.SX9500Read) refers to sx9500.o(i.SX9500ReadBuffer) for SX9500ReadBuffer
    sx9500.o(i.SX9500ReadBuffer) refers to i2c.o(i.I2cReadBuffer) for I2cReadBuffer
    sx9500.o(i.SX9500ReadBuffer) refers to sx9500.o(.data) for .data
    sx9500.o(i.SX9500ReadBuffer) refers to board.o(.bss) for I2c
    sx9500.o(i.SX9500Reset) refers to sx9500.o(i.SX9500Write) for SX9500Write
    sx9500.o(i.SX9500SetDeviceAddr) refers to sx9500.o(.data) for .data
    sx9500.o(i.SX9500Write) refers to sx9500.o(i.SX9500WriteBuffer) for SX9500WriteBuffer
    sx9500.o(i.SX9500WriteBuffer) refers to i2c.o(i.I2cWriteBuffer) for I2cWriteBuffer
    sx9500.o(i.SX9500WriteBuffer) refers to sx9500.o(.data) for .data
    sx9500.o(i.SX9500WriteBuffer) refers to board.o(.bss) for I2c
    sx1272.o(i.GetFskBandwidthRegValue) refers to sx1272.o(.constdata) for .constdata
    sx1272.o(i.SX1272GetStatus) refers to sx1272.o(.bss) for .bss
    sx1272.o(i.SX1272GetTimeOnAir) refers to dfltui.o(.text) for __aeabi_ui2d
    sx1272.o(i.SX1272GetTimeOnAir) refers to sx1272.o(i.SX1272Read) for SX1272Read
    sx1272.o(i.SX1272GetTimeOnAir) refers to dadd.o(.text) for __aeabi_dadd
    sx1272.o(i.SX1272GetTimeOnAir) refers to dscalb.o(.text) for __ARM_scalbn
    sx1272.o(i.SX1272GetTimeOnAir) refers to ddiv.o(.text) for __aeabi_ddiv
    sx1272.o(i.SX1272GetTimeOnAir) refers to dmul.o(.text) for __aeabi_dmul
    sx1272.o(i.SX1272GetTimeOnAir) refers to round.o(i.round) for round
    sx1272.o(i.SX1272GetTimeOnAir) refers to dfixui.o(.text) for __aeabi_d2uiz
    sx1272.o(i.SX1272GetTimeOnAir) refers to dflti.o(.text) for __aeabi_i2d
    sx1272.o(i.SX1272GetTimeOnAir) refers to ceil.o(i.ceil) for ceil
    sx1272.o(i.SX1272GetTimeOnAir) refers to cdrcmple.o(.text) for __aeabi_cdrcmple
    sx1272.o(i.SX1272GetTimeOnAir) refers to floor.o(i.floor) for floor
    sx1272.o(i.SX1272GetTimeOnAir) refers to sx1272.o(.bss) for .bss
    sx1272.o(i.SX1272Init) refers to timer.o(i.TimerInit) for TimerInit
    sx1272.o(i.SX1272Init) refers to sx1272.o(i.SX1272Reset) for SX1272Reset
    sx1272.o(i.SX1272Init) refers to sx1272.o(i.SX1272SetOpMode) for SX1272SetOpMode
    sx1272.o(i.SX1272Init) refers to sx1272-board.o(i.SX1272IoIrqInit) for SX1272IoIrqInit
    sx1272.o(i.SX1272Init) refers to sx1272.o(i.SX1272SetModem) for SX1272SetModem
    sx1272.o(i.SX1272Init) refers to sx1272.o(i.SX1272Write) for SX1272Write
    sx1272.o(i.SX1272Init) refers to sx1272.o(.data) for .data
    sx1272.o(i.SX1272Init) refers to sx1272.o(i.SX1272OnTimeoutIrq) for SX1272OnTimeoutIrq
    sx1272.o(i.SX1272Init) refers to sx1272.o(.bss) for .bss
    sx1272.o(i.SX1272Init) refers to sx1272.o(.constdata) for .constdata
    sx1272.o(i.SX1272IsChannelFree) refers to sx1272.o(i.SX1272SetModem) for SX1272SetModem
    sx1272.o(i.SX1272IsChannelFree) refers to sx1272.o(i.SX1272SetChannel) for SX1272SetChannel
    sx1272.o(i.SX1272IsChannelFree) refers to sx1272.o(i.SX1272SetOpMode) for SX1272SetOpMode
    sx1272.o(i.SX1272IsChannelFree) refers to delay.o(i.DelayMs) for DelayMs
    sx1272.o(i.SX1272IsChannelFree) refers to sx1272.o(i.SX1272ReadRssi) for SX1272ReadRssi
    sx1272.o(i.SX1272IsChannelFree) refers to sx1272.o(i.SX1272SetSleep) for SX1272SetSleep
    sx1272.o(i.SX1272OnDio0Irq) refers to timer.o(i.TimerStop) for TimerStop
    sx1272.o(i.SX1272OnDio0Irq) refers to sx1272.o(i.SX1272Write) for SX1272Write
    sx1272.o(i.SX1272OnDio0Irq) refers to sx1272.o(i.SX1272Read) for SX1272Read
    sx1272.o(i.SX1272OnDio0Irq) refers to timer.o(i.TimerStart) for TimerStart
    sx1272.o(i.SX1272OnDio0Irq) refers to sx1272.o(i.SX1272ReadFifo) for SX1272ReadFifo
    sx1272.o(i.SX1272OnDio0Irq) refers to sx1272.o(.bss) for .bss
    sx1272.o(i.SX1272OnDio0Irq) refers to sx1272.o(.data) for .data
    sx1272.o(i.SX1272OnDio1Irq) refers to sx1272.o(i.SX1272WriteFifo) for SX1272WriteFifo
    sx1272.o(i.SX1272OnDio1Irq) refers to timer.o(i.TimerStop) for TimerStop
    sx1272.o(i.SX1272OnDio1Irq) refers to sx1272.o(i.SX1272Read) for SX1272Read
    sx1272.o(i.SX1272OnDio1Irq) refers to sx1272.o(i.SX1272ReadFifo) for SX1272ReadFifo
    sx1272.o(i.SX1272OnDio1Irq) refers to sx1272.o(.bss) for .bss
    sx1272.o(i.SX1272OnDio1Irq) refers to sx1272.o(.data) for .data
    sx1272.o(i.SX1272OnDio2Irq) refers to sx1272.o(i.SX1272Write) for SX1272Write
    sx1272.o(i.SX1272OnDio2Irq) refers to sx1272.o(i.SX1272Read) for SX1272Read
    sx1272.o(i.SX1272OnDio2Irq) refers to timer.o(i.TimerStop) for TimerStop
    sx1272.o(i.SX1272OnDio2Irq) refers to dfltui.o(.text) for __aeabi_ui2d
    sx1272.o(i.SX1272OnDio2Irq) refers to dmul.o(.text) for __aeabi_dmul
    sx1272.o(i.SX1272OnDio2Irq) refers to dfixi.o(.text) for __aeabi_d2iz
    sx1272.o(i.SX1272OnDio2Irq) refers to sx1272.o(.bss) for .bss
    sx1272.o(i.SX1272OnDio2Irq) refers to sx1272.o(.data) for .data
    sx1272.o(i.SX1272OnDio3Irq) refers to sx1272.o(i.SX1272Read) for SX1272Read
    sx1272.o(i.SX1272OnDio3Irq) refers to sx1272.o(i.SX1272Write) for SX1272Write
    sx1272.o(i.SX1272OnDio3Irq) refers to sx1272.o(.bss) for .bss
    sx1272.o(i.SX1272OnDio3Irq) refers to sx1272.o(.data) for .data
    sx1272.o(i.SX1272OnDio4Irq) refers to sx1272.o(.bss) for .bss
    sx1272.o(i.SX1272OnTimeoutIrq) refers to sx1272.o(i.SX1272Write) for SX1272Write
    sx1272.o(i.SX1272OnTimeoutIrq) refers to timer.o(i.TimerStop) for TimerStop
    sx1272.o(i.SX1272OnTimeoutIrq) refers to sx1272.o(i.SX1272Read) for SX1272Read
    sx1272.o(i.SX1272OnTimeoutIrq) refers to sx1272.o(.bss) for .bss
    sx1272.o(i.SX1272OnTimeoutIrq) refers to sx1272.o(.data) for .data
    sx1272.o(i.SX1272Random) refers to sx1272.o(i.SX1272SetModem) for SX1272SetModem
    sx1272.o(i.SX1272Random) refers to sx1272.o(i.SX1272Write) for SX1272Write
    sx1272.o(i.SX1272Random) refers to sx1272.o(i.SX1272SetOpMode) for SX1272SetOpMode
    sx1272.o(i.SX1272Random) refers to delay.o(i.DelayMs) for DelayMs
    sx1272.o(i.SX1272Random) refers to sx1272.o(i.SX1272Read) for SX1272Read
    sx1272.o(i.SX1272Random) refers to sx1272.o(i.SX1272SetSleep) for SX1272SetSleep
    sx1272.o(i.SX1272Read) refers to sx1272.o(i.SX1272ReadBuffer) for SX1272ReadBuffer
    sx1272.o(i.SX1272ReadBuffer) refers to gpio.o(i.GpioWrite) for GpioWrite
    sx1272.o(i.SX1272ReadBuffer) refers to spi-board.o(i.SpiInOut) for SpiInOut
    sx1272.o(i.SX1272ReadBuffer) refers to sx1272.o(.bss) for .bss
    sx1272.o(i.SX1272ReadFifo) refers to sx1272.o(i.SX1272ReadBuffer) for SX1272ReadBuffer
    sx1272.o(i.SX1272ReadRssi) refers to sx1272.o(i.SX1272Read) for SX1272Read
    sx1272.o(i.SX1272Reset) refers to gpio.o(i.GpioInit) for GpioInit
    sx1272.o(i.SX1272Reset) refers to delay.o(i.DelayMs) for DelayMs
    sx1272.o(i.SX1272Reset) refers to sx1272.o(.bss) for .bss
    sx1272.o(i.SX1272Send) refers to sx1272.o(i.SX1272Write) for SX1272Write
    sx1272.o(i.SX1272Send) refers to sx1272.o(i.SX1272WriteFifo) for SX1272WriteFifo
    sx1272.o(i.SX1272Send) refers to utilities.o(i.memcpy1) for memcpy1
    sx1272.o(i.SX1272Send) refers to sx1272.o(i.SX1272Read) for SX1272Read
    sx1272.o(i.SX1272Send) refers to sx1272.o(i.SX1272SetStby) for SX1272SetStby
    sx1272.o(i.SX1272Send) refers to delay.o(i.DelayMs) for DelayMs
    sx1272.o(i.SX1272Send) refers to sx1272.o(i.SX1272SetTx) for SX1272SetTx
    sx1272.o(i.SX1272Send) refers to sx1272.o(.bss) for .bss
    sx1272.o(i.SX1272SetChannel) refers to dfltui.o(.text) for __aeabi_ui2d
    sx1272.o(i.SX1272SetChannel) refers to ddiv.o(.text) for __aeabi_ddiv
    sx1272.o(i.SX1272SetChannel) refers to dfixui.o(.text) for __aeabi_d2uiz
    sx1272.o(i.SX1272SetChannel) refers to sx1272.o(i.SX1272Write) for SX1272Write
    sx1272.o(i.SX1272SetChannel) refers to sx1272.o(.bss) for .bss
    sx1272.o(i.SX1272SetMaxPayloadLength) refers to sx1272.o(i.SX1272SetModem) for SX1272SetModem
    sx1272.o(i.SX1272SetMaxPayloadLength) refers to sx1272.o(i.SX1272Write) for SX1272Write
    sx1272.o(i.SX1272SetMaxPayloadLength) refers to sx1272.o(.bss) for .bss
    sx1272.o(i.SX1272SetModem) refers to sx1272.o(i.SX1272SetOpMode) for SX1272SetOpMode
    sx1272.o(i.SX1272SetModem) refers to sx1272.o(i.SX1272Read) for SX1272Read
    sx1272.o(i.SX1272SetModem) refers to sx1272.o(i.SX1272Write) for SX1272Write
    sx1272.o(i.SX1272SetModem) refers to sx1272.o(.bss) for .bss
    sx1272.o(i.SX1272SetOpMode) refers to sx1272-board.o(i.SX1272SetAntSwLowPower) for SX1272SetAntSwLowPower
    sx1272.o(i.SX1272SetOpMode) refers to sx1272-board.o(i.SX1272SetAntSw) for SX1272SetAntSw
    sx1272.o(i.SX1272SetOpMode) refers to sx1272.o(i.SX1272Read) for SX1272Read
    sx1272.o(i.SX1272SetOpMode) refers to sx1272.o(i.SX1272Write) for SX1272Write
    sx1272.o(i.SX1272SetOpMode) refers to sx1272.o(.data) for .data
    sx1272.o(i.SX1272SetRx) refers to sx1272.o(i.SX1272Read) for SX1272Read
    sx1272.o(i.SX1272SetRx) refers to sx1272.o(i.SX1272Write) for SX1272Write
    sx1272.o(i.SX1272SetRx) refers to memseta.o(.text) for __aeabi_memclr4
    sx1272.o(i.SX1272SetRx) refers to timer.o(i.TimerSetValue) for TimerSetValue
    sx1272.o(i.SX1272SetRx) refers to timer.o(i.TimerStart) for TimerStart
    sx1272.o(i.SX1272SetRx) refers to sx1272.o(i.SX1272SetOpMode) for SX1272SetOpMode
    sx1272.o(i.SX1272SetRx) refers to dfltui.o(.text) for __aeabi_ui2d
    sx1272.o(i.SX1272SetRx) refers to dadd.o(.text) for __aeabi_dadd
    sx1272.o(i.SX1272SetRx) refers to dscalb.o(.text) for __ARM_scalbn
    sx1272.o(i.SX1272SetRx) refers to ddiv.o(.text) for __aeabi_ddiv
    sx1272.o(i.SX1272SetRx) refers to dmul.o(.text) for __aeabi_dmul
    sx1272.o(i.SX1272SetRx) refers to dfixui.o(.text) for __aeabi_d2uiz
    sx1272.o(i.SX1272SetRx) refers to sx1272.o(.bss) for .bss
    sx1272.o(i.SX1272SetRxConfig) refers to sx1272.o(i.SX1272SetModem) for SX1272SetModem
    sx1272.o(i.SX1272SetRxConfig) refers to dfltui.o(.text) for __aeabi_ui2d
    sx1272.o(i.SX1272SetRxConfig) refers to ddiv.o(.text) for __aeabi_ddiv
    sx1272.o(i.SX1272SetRxConfig) refers to dfixui.o(.text) for __aeabi_d2uiz
    sx1272.o(i.SX1272SetRxConfig) refers to sx1272.o(i.SX1272Write) for SX1272Write
    sx1272.o(i.SX1272SetRxConfig) refers to sx1272.o(i.GetFskBandwidthRegValue) for GetFskBandwidthRegValue
    sx1272.o(i.SX1272SetRxConfig) refers to sx1272.o(i.SX1272Read) for SX1272Read
    sx1272.o(i.SX1272SetRxConfig) refers to sx1272.o(.bss) for .bss
    sx1272.o(i.SX1272SetSleep) refers to timer.o(i.TimerStop) for TimerStop
    sx1272.o(i.SX1272SetSleep) refers to sx1272.o(i.SX1272SetOpMode) for SX1272SetOpMode
    sx1272.o(i.SX1272SetSleep) refers to sx1272.o(.bss) for .bss
    sx1272.o(i.SX1272SetStby) refers to timer.o(i.TimerStop) for TimerStop
    sx1272.o(i.SX1272SetStby) refers to sx1272.o(i.SX1272SetOpMode) for SX1272SetOpMode
    sx1272.o(i.SX1272SetStby) refers to sx1272.o(.bss) for .bss
    sx1272.o(i.SX1272SetTx) refers to timer.o(i.TimerSetValue) for TimerSetValue
    sx1272.o(i.SX1272SetTx) refers to sx1272.o(i.SX1272Read) for SX1272Read
    sx1272.o(i.SX1272SetTx) refers to sx1272.o(i.SX1272Write) for SX1272Write
    sx1272.o(i.SX1272SetTx) refers to timer.o(i.TimerStart) for TimerStart
    sx1272.o(i.SX1272SetTx) refers to sx1272.o(i.SX1272SetOpMode) for SX1272SetOpMode
    sx1272.o(i.SX1272SetTx) refers to sx1272.o(.bss) for .bss
    sx1272.o(i.SX1272SetTxConfig) refers to sx1272.o(i.SX1272SetModem) for SX1272SetModem
    sx1272.o(i.SX1272SetTxConfig) refers to sx1272.o(i.SX1272Read) for SX1272Read
    sx1272.o(i.SX1272SetTxConfig) refers to sx1272-board.o(i.SX1272GetPaSelect) for SX1272GetPaSelect
    sx1272.o(i.SX1272SetTxConfig) refers to sx1272.o(i.SX1272Write) for SX1272Write
    sx1272.o(i.SX1272SetTxConfig) refers to dfltui.o(.text) for __aeabi_ui2d
    sx1272.o(i.SX1272SetTxConfig) refers to ddiv.o(.text) for __aeabi_ddiv
    sx1272.o(i.SX1272SetTxConfig) refers to dfixui.o(.text) for __aeabi_d2uiz
    sx1272.o(i.SX1272SetTxConfig) refers to sx1272.o(.bss) for .bss
    sx1272.o(i.SX1272StartCad) refers to sx1272.o(i.SX1272Write) for SX1272Write
    sx1272.o(i.SX1272StartCad) refers to sx1272.o(i.SX1272Read) for SX1272Read
    sx1272.o(i.SX1272StartCad) refers to sx1272.o(i.SX1272SetOpMode) for SX1272SetOpMode
    sx1272.o(i.SX1272StartCad) refers to sx1272.o(.bss) for .bss
    sx1272.o(i.SX1272Write) refers to sx1272.o(i.SX1272WriteBuffer) for SX1272WriteBuffer
    sx1272.o(i.SX1272WriteBuffer) refers to gpio.o(i.GpioWrite) for GpioWrite
    sx1272.o(i.SX1272WriteBuffer) refers to spi-board.o(i.SpiInOut) for SpiInOut
    sx1272.o(i.SX1272WriteBuffer) refers to sx1272.o(.bss) for .bss
    sx1272.o(i.SX1272WriteFifo) refers to sx1272.o(i.SX1272WriteBuffer) for SX1272WriteBuffer
    sx1272.o(.data) refers to sx1272.o(i.SX1272OnDio0Irq) for SX1272OnDio0Irq
    sx1272.o(.data) refers to sx1272.o(i.SX1272OnDio1Irq) for SX1272OnDio1Irq
    sx1272.o(.data) refers to sx1272.o(i.SX1272OnDio2Irq) for SX1272OnDio2Irq
    sx1272.o(.data) refers to sx1272.o(i.SX1272OnDio3Irq) for SX1272OnDio3Irq
    sx1272.o(.data) refers to sx1272.o(i.SX1272OnDio4Irq) for SX1272OnDio4Irq
    adc.o(i.AdcDeInit) refers to adc.o(.data) for .data
    adc.o(i.AdcInit) refers to adc-board.o(i.AdcMcuInit) for AdcMcuInit
    adc.o(i.AdcInit) refers to adc-board.o(i.AdcMcuFormat) for AdcMcuFormat
    adc.o(i.AdcInit) refers to adc.o(.data) for .data
    adc.o(i.AdcReadChannel) refers to adc-board.o(i.AdcMcuRead) for AdcMcuRead
    adc.o(i.AdcReadChannel) refers to adc.o(.data) for .data
    delay.o(i.Delay) refers to fmul.o(.text) for __aeabi_fmul
    delay.o(i.Delay) refers to ffixui.o(.text) for __aeabi_f2uiz
    delay.o(i.Delay) refers to delay.o(i.DelayMs) for DelayMs
    delay.o(i.DelayMs) refers to timer.o(i.TimerGetLowPowerEnable) for TimerGetLowPowerEnable
    delay.o(i.DelayMs) refers to rtc-board.o(i.RtcDelayMs) for RtcDelayMs
    delay.o(i.DelayMs) refers to timer-board.o(i.TimerHwDelayMs) for TimerHwDelayMs
    fifo.o(i.FifoPop) refers to fifo.o(i.FifoNext) for FifoNext
    fifo.o(i.FifoPush) refers to fifo.o(i.FifoNext) for FifoNext
    fifo.o(i.IsFifoFull) refers to fifo.o(i.FifoNext) for FifoNext
    gpio.o(i.GpioInit) refers to gpio-board.o(i.GpioMcuInit) for GpioMcuInit
    gpio.o(i.GpioInit) refers to gpio-ioe.o(i.GpioIoeInit) for GpioIoeInit
    gpio.o(i.GpioRead) refers to gpio-board.o(i.GpioMcuRead) for GpioMcuRead
    gpio.o(i.GpioRead) refers to gpio-ioe.o(i.GpioIoeRead) for GpioIoeRead
    gpio.o(i.GpioSetInterrupt) refers to gpio-board.o(i.GpioMcuSetInterrupt) for GpioMcuSetInterrupt
    gpio.o(i.GpioSetInterrupt) refers to gpio-ioe.o(i.GpioIoeSetInterrupt) for GpioIoeSetInterrupt
    gpio.o(i.GpioWrite) refers to gpio-board.o(i.GpioMcuWrite) for GpioMcuWrite
    gpio.o(i.GpioWrite) refers to gpio-ioe.o(i.GpioIoeWrite) for GpioIoeWrite
    gps.o(i.GpsConvertPositionFromStringToNumerical) refers to dfltui.o(.text) for __aeabi_ui2d
    gps.o(i.GpsConvertPositionFromStringToNumerical) refers to dmul.o(.text) for __aeabi_dmul
    gps.o(i.GpsConvertPositionFromStringToNumerical) refers to dadd.o(.text) for __aeabi_dadd
    gps.o(i.GpsConvertPositionFromStringToNumerical) refers to ddiv.o(.text) for __aeabi_ddiv
    gps.o(i.GpsConvertPositionFromStringToNumerical) refers to gps.o(.bss) for .bss
    gps.o(i.GpsConvertPositionFromStringToNumerical) refers to gps.o(.data) for .data
    gps.o(i.GpsConvertPositionIntoBinary) refers to cdrcmple.o(.text) for __aeabi_cdrcmple
    gps.o(i.GpsConvertPositionIntoBinary) refers to dmul.o(.text) for __aeabi_dmul
    gps.o(i.GpsConvertPositionIntoBinary) refers to ddiv.o(.text) for __aeabi_ddiv
    gps.o(i.GpsConvertPositionIntoBinary) refers to dfixi.o(.text) for __aeabi_d2iz
    gps.o(i.GpsConvertPositionIntoBinary) refers to dscalb.o(.text) for __ARM_scalbn
    gps.o(i.GpsConvertPositionIntoBinary) refers to gps.o(.data) for .data
    gps.o(i.GpsFormatGpsData) refers to gps.o(i.GpsConvertPositionFromStringToNumerical) for GpsConvertPositionFromStringToNumerical
    gps.o(i.GpsFormatGpsData) refers to gps.o(i.GpsConvertPositionIntoBinary) for GpsConvertPositionIntoBinary
    gps.o(i.GpsGetLatestGpsAltitude) refers to gps.o(i.GpsHasFix) for GpsHasFix
    gps.o(i.GpsGetLatestGpsAltitude) refers to atoi.o(.text) for atoi
    gps.o(i.GpsGetLatestGpsAltitude) refers to gps.o(.data) for .data
    gps.o(i.GpsGetLatestGpsAltitude) refers to gps.o(.bss) for .bss
    gps.o(i.GpsGetLatestGpsPositionBinary) refers to gps.o(i.GpsHasFix) for GpsHasFix
    gps.o(i.GpsGetLatestGpsPositionBinary) refers to gps.o(i.GpsResetPosition) for GpsResetPosition
    gps.o(i.GpsGetLatestGpsPositionBinary) refers to gps.o(.data) for .data
    gps.o(i.GpsGetLatestGpsPositionDouble) refers to gps.o(i.GpsHasFix) for GpsHasFix
    gps.o(i.GpsGetLatestGpsPositionDouble) refers to gps.o(i.GpsResetPosition) for GpsResetPosition
    gps.o(i.GpsGetLatestGpsPositionDouble) refers to gps.o(.data) for .data
    gps.o(i.GpsGetPpsDetectedState) refers to gps.o(.data) for .data
    gps.o(i.GpsHasFix) refers to gps.o(.bss) for .bss
    gps.o(i.GpsInit) refers to gps-board.o(i.GpsMcuInit) for GpsMcuInit
    gps.o(i.GpsInit) refers to gps.o(.data) for .data
    gps.o(i.GpsNmeaChecksum) refers to utilities.o(i.Nibble2HexChar) for Nibble2HexChar
    gps.o(i.GpsNmeaValidateChecksum) refers to gps.o(i.GpsNmeaChecksum) for GpsNmeaChecksum
    gps.o(i.GpsParseGpsData) refers to gps.o(i.GpsNmeaValidateChecksum) for GpsNmeaValidateChecksum
    gps.o(i.GpsParseGpsData) refers to strncmp.o(.text) for strncmp
    gps.o(i.GpsParseGpsData) refers to gps.o(i.GpsFormatGpsData) for GpsFormatGpsData
    gps.o(i.GpsParseGpsData) refers to gps.o(.bss) for .bss
    gps.o(i.GpsParseGpsData) refers to gps.o(.constdata) for .constdata
    gps.o(i.GpsPpsHandler) refers to rtc-board.o(i.BlockLowPowerDuringTask) for BlockLowPowerDuringTask
    gps.o(i.GpsPpsHandler) refers to gps.o(.data) for .data
    gps.o(i.GpsResetPosition) refers to gps.o(.data) for .data
    i2c.o(i.I2cDeInit) refers to i2c-board.o(i.I2cMcuDeInit) for I2cMcuDeInit
    i2c.o(i.I2cDeInit) refers to i2c.o(.data) for .data
    i2c.o(i.I2cInit) refers to i2c-board.o(i.I2cMcuInit) for I2cMcuInit
    i2c.o(i.I2cInit) refers to i2c-board.o(i.I2cMcuFormat) for I2cMcuFormat
    i2c.o(i.I2cInit) refers to i2c.o(.data) for .data
    i2c.o(i.I2cRead) refers to i2c-board.o(i.I2cMcuReadBuffer) for I2cMcuReadBuffer
    i2c.o(i.I2cRead) refers to i2c.o(.data) for .data
    i2c.o(i.I2cReadBuffer) refers to i2c-board.o(i.I2cMcuReadBuffer) for I2cMcuReadBuffer
    i2c.o(i.I2cReadBuffer) refers to i2c.o(.data) for .data
    i2c.o(i.I2cResetBus) refers to i2c.o(i.I2cInit) for I2cInit
    i2c.o(i.I2cResetBus) refers to i2c.o(.data) for .data
    i2c.o(i.I2cWrite) refers to i2c-board.o(i.I2cMcuWriteBuffer) for I2cMcuWriteBuffer
    i2c.o(i.I2cWrite) refers to i2c.o(.data) for .data
    i2c.o(i.I2cWriteBuffer) refers to i2c-board.o(i.I2cMcuWriteBuffer) for I2cMcuWriteBuffer
    i2c.o(i.I2cWriteBuffer) refers to i2c.o(.data) for .data
    timer.o(i.TimerExists) refers to timer.o(.data) for .data
    timer.o(i.TimerGetCurrentTime) refers to rtc-board.o(i.RtcGetTimerValue) for RtcGetTimerValue
    timer.o(i.TimerGetCurrentTime) refers to timer-board.o(i.TimerHwGetTime) for TimerHwGetTime
    timer.o(i.TimerGetCurrentTime) refers to timer.o(.data) for .data
    timer.o(i.TimerGetLowPowerEnable) refers to timer.o(.data) for .data
    timer.o(i.TimerGetValue) refers to rtc-board.o(i.RtcGetTimerElapsedTime) for RtcGetTimerElapsedTime
    timer.o(i.TimerGetValue) refers to timer-board.o(i.TimerHwGetElapsedTime) for TimerHwGetElapsedTime
    timer.o(i.TimerGetValue) refers to timer.o(.data) for .data
    timer.o(i.TimerInsertNewHeadTimer) refers to timer.o(i.TimerSetTimeout) for TimerSetTimeout
    timer.o(i.TimerInsertNewHeadTimer) refers to timer.o(.data) for .data
    timer.o(i.TimerInsertTimer) refers to timer.o(.data) for .data
    timer.o(i.TimerIrqHandler) refers to timer.o(i.TimerGetValue) for TimerGetValue
    timer.o(i.TimerIrqHandler) refers to timer.o(i.TimerSetTimeout) for TimerSetTimeout
    timer.o(i.TimerIrqHandler) refers to timer.o(.data) for .data
    timer.o(i.TimerLowPowerHandler) refers to rtc-board.o(i.RtcEnterLowPowerStopMode) for RtcEnterLowPowerStopMode
    timer.o(i.TimerLowPowerHandler) refers to timer-board.o(i.TimerHwEnterLowPowerStopMode) for TimerHwEnterLowPowerStopMode
    timer.o(i.TimerLowPowerHandler) refers to timer.o(.data) for .data
    timer.o(i.TimerReset) refers to timer.o(i.TimerStop) for TimerStop
    timer.o(i.TimerReset) refers to timer.o(i.TimerStart) for TimerStart
    timer.o(i.TimerSetLowPowerEnable) refers to timer.o(.data) for .data
    timer.o(i.TimerSetTimeout) refers to rtc-board.o(i.RtcSetTimeout) for RtcSetTimeout
    timer.o(i.TimerSetTimeout) refers to timer-board.o(i.TimerHwStart) for TimerHwStart
    timer.o(i.TimerSetTimeout) refers to timer.o(.data) for .data
    timer.o(i.TimerSetValue) refers to timer.o(i.TimerStop) for TimerStop
    timer.o(i.TimerSetValue) refers to rtc-board.o(i.RtcGetMinimumTimeout) for RtcGetMinimumTimeout
    timer.o(i.TimerSetValue) refers to timer-board.o(i.TimerHwGetMinimumTimeout) for TimerHwGetMinimumTimeout
    timer.o(i.TimerSetValue) refers to timer.o(.data) for .data
    timer.o(i.TimerStart) refers to timer.o(i.TimerExists) for TimerExists
    timer.o(i.TimerStart) refers to timer.o(i.TimerInsertNewHeadTimer) for TimerInsertNewHeadTimer
    timer.o(i.TimerStart) refers to timer.o(i.TimerGetValue) for TimerGetValue
    timer.o(i.TimerStart) refers to timer.o(i.TimerInsertTimer) for TimerInsertTimer
    timer.o(i.TimerStart) refers to timer.o(.data) for .data
    timer.o(i.TimerStop) refers to timer.o(i.TimerGetValue) for TimerGetValue
    timer.o(i.TimerStop) refers to timer.o(i.TimerSetTimeout) for TimerSetTimeout
    timer.o(i.TimerStop) refers to timer.o(.data) for .data
    uart.o(i.UartConfig) refers to uart-board.o(i.UartMcuConfig) for UartMcuConfig
    uart.o(i.UartDeInit) refers to uart-board.o(i.UartMcuDeInit) for UartMcuDeInit
    uart.o(i.UartGetBuffer) refers to uart.o(i.UartGetChar) for UartGetChar
    uart.o(i.UartGetChar) refers to uart-board.o(i.UartMcuGetChar) for UartMcuGetChar
    uart.o(i.UartInit) refers to uart-board.o(i.UartMcuInit) for UartMcuInit
    uart.o(i.UartPutBuffer) refers to uart.o(i.UartPutChar) for UartPutChar
    uart.o(i.UartPutChar) refers to uart-board.o(i.UartMcuPutChar) for UartMcuPutChar
    ceil.o(i.__softfp_ceil) refers (Special) to iusefp.o(.text) for __I$use$fp
    ceil.o(i.__softfp_ceil) refers to ceil.o(i.ceil) for ceil
    ceil.o(i.ceil) refers (Special) to iusefp.o(.text) for __I$use$fp
    ceil.o(i.ceil) refers to dadd.o(.text) for __aeabi_dadd
    ceil.o(i.ceil) refers to cdrcmple.o(.text) for __aeabi_cdrcmple
    floor.o(i.__softfp_floor) refers (Special) to iusefp.o(.text) for __I$use$fp
    floor.o(i.__softfp_floor) refers to floor.o(i.floor) for floor
    floor.o(i.floor) refers (Special) to iusefp.o(.text) for __I$use$fp
    floor.o(i.floor) refers to dadd.o(.text) for __aeabi_dadd
    floor.o(i.floor) refers to cdrcmple.o(.text) for __aeabi_cdrcmple
    round.o(i.round) refers (Special) to iusefp.o(.text) for __I$use$fp
    round.o(i.round) refers to drnd.o(.text) for _drnd
    round.o(i.round) refers to dadd.o(.text) for __aeabi_drsub
    round.o(i.round) refers to cdcmple.o(.text) for __aeabi_cdcmple
    round.o(i.round) refers to cdrcmple.o(.text) for __aeabi_cdrcmple
    entry.o(.ARM.Collect$$$$00000000) refers (Special) to entry10a.o(.ARM.Collect$$$$0000000D) for __rt_final_cpp
    entry.o(.ARM.Collect$$$$00000000) refers (Special) to entry11a.o(.ARM.Collect$$$$0000000F) for __rt_final_exit
    entry.o(.ARM.Collect$$$$00000000) refers (Special) to entry7b.o(.ARM.Collect$$$$00000008) for _main_clock
    entry.o(.ARM.Collect$$$$00000000) refers (Special) to entry8b.o(.ARM.Collect$$$$0000000A) for _main_cpp_init
    entry.o(.ARM.Collect$$$$00000000) refers (Special) to entry9a.o(.ARM.Collect$$$$0000000B) for _main_init
    entry.o(.ARM.Collect$$$$00000000) refers (Special) to entry5.o(.ARM.Collect$$$$00000004) for _main_scatterload
    entry.o(.ARM.Collect$$$$00000000) refers (Special) to entry2.o(.ARM.Collect$$$$00000001) for _main_stk
    atoi.o(.text) refers to errno.o(i.__aeabi_errno_addr) for __aeabi_errno_addr
    atoi.o(.text) refers to strtol.o(.text) for strtol
    fadd.o(.text) refers (Special) to iusefp.o(.text) for __I$use$fp
    fadd.o(.text) refers to fepilogue.o(.text) for _float_epilogue
    fmul.o(.text) refers (Special) to iusefp.o(.text) for __I$use$fp
    fscalb.o(.text) refers (Special) to iusefp.o(.text) for __I$use$fp
    dadd.o(.text) refers (Special) to iusefp.o(.text) for __I$use$fp
    dadd.o(.text) refers to llshl.o(.text) for __aeabi_llsl
    dadd.o(.text) refers to llsshr.o(.text) for __aeabi_lasr
    dadd.o(.text) refers to depilogue.o(.text) for _double_epilogue
    dmul.o(.text) refers (Special) to iusefp.o(.text) for __I$use$fp
    dmul.o(.text) refers to depilogue.o(.text) for _double_epilogue
    ddiv.o(.text) refers (Special) to iusefp.o(.text) for __I$use$fp
    ddiv.o(.text) refers to depilogue.o(.text) for _double_round
    dscalb.o(.text) refers (Special) to iusefp.o(.text) for __I$use$fp
    fflti.o(.text) refers (Special) to iusefp.o(.text) for __I$use$fp
    fflti.o(.text) refers to fepilogue.o(.text) for _float_epilogue
    ffltui.o(.text) refers (Special) to iusefp.o(.text) for __I$use$fp
    ffltui.o(.text) refers to fepilogue.o(.text) for _float_epilogue
    dflti.o(.text) refers (Special) to iusefp.o(.text) for __I$use$fp
    dflti.o(.text) refers to depilogue.o(.text) for _double_epilogue
    dfltui.o(.text) refers (Special) to iusefp.o(.text) for __I$use$fp
    dfltui.o(.text) refers to depilogue.o(.text) for _double_epilogue
    dfltul.o(.text) refers (Special) to iusefp.o(.text) for __I$use$fp
    dfltul.o(.text) refers to depilogue.o(.text) for _double_epilogue
    ffixui.o(.text) refers (Special) to iusefp.o(.text) for __I$use$fp
    dfixi.o(.text) refers (Special) to iusefp.o(.text) for __I$use$fp
    dfixi.o(.text) refers to llushr.o(.text) for __aeabi_llsr
    dfixui.o(.text) refers (Special) to iusefp.o(.text) for __I$use$fp
    dfixui.o(.text) refers to llushr.o(.text) for __aeabi_llsr
    dfixul.o(.text) refers (Special) to iusefp.o(.text) for __I$use$fp
    dfixul.o(.text) refers to llushr.o(.text) for __aeabi_llsr
    dfixul.o(.text) refers to llshl.o(.text) for __aeabi_llsl
    cdcmple.o(.text) refers (Special) to iusefp.o(.text) for __I$use$fp
    cdrcmple.o(.text) refers (Special) to iusefp.o(.text) for __I$use$fp
    d2f.o(.text) refers (Special) to iusefp.o(.text) for __I$use$fp
    d2f.o(.text) refers to fepilogue.o(.text) for _float_round
    entry2.o(.ARM.Collect$$$$00000001) refers to entry2.o(.ARM.Collect$$$$00002712) for __lit__00000000
    entry2.o(.ARM.Collect$$$$00002712) refers to startup_stm32l1xx_md.o(STACK) for __initial_sp
    entry2.o(__vectab_stack_and_reset_area) refers to startup_stm32l1xx_md.o(STACK) for __initial_sp
    entry2.o(__vectab_stack_and_reset_area) refers to entry.o(.ARM.Collect$$$$00000000) for __main
    entry5.o(.ARM.Collect$$$$00000004) refers to init.o(.text) for __scatterload
    entry9a.o(.ARM.Collect$$$$0000000B) refers to main.o(i.main) for main
    entry9b.o(.ARM.Collect$$$$0000000C) refers to main.o(i.main) for main
    errno.o(i.__aeabi_errno_addr) refers to errno.o(.data) for .data
    errno.o(i.__read_errno) refers to errno.o(.data) for .data
    errno.o(i.__set_errno) refers to errno.o(.data) for .data
    strtol.o(.text) refers to ctype_o.o(.text) for __rt_ctype_table
    strtol.o(.text) refers to _strtoul.o(.text) for _strtoul
    strtol.o(.text) refers to errno.o(i.__aeabi_errno_addr) for __aeabi_errno_addr
    depilogue.o(.text) refers to llshl.o(.text) for __aeabi_llsl
    depilogue.o(.text) refers to llushr.o(.text) for __aeabi_llsr
    drnd.o(.text) refers to llshl.o(.text) for __aeabi_llsl
    drnd.o(.text) refers to llushr.o(.text) for __aeabi_llsr
    drnd.o(.text) refers to depilogue.o(.text) for _double_round
    init.o(.text) refers to entry5.o(.ARM.Collect$$$$00000004) for __main_after_scatterload
    ctype_o.o(.text) refers to ctype_o.o(.constdata) for .constdata
    ctype_o.o(.constdata) refers to ctype_o.o(.constdata) for __ctype_table
    isalnum_o.o(.text) refers to ctype_o.o(.text) for __rt_ctype_table
    isalpha_o.o(.text) refers to ctype_o.o(.text) for __rt_ctype_table
    isblank_o.o(.text) refers to ctype_o.o(.constdata) for __ctype_table
    iscntrl_o.o(.text) refers to ctype_o.o(.text) for __rt_ctype_table
    isdigit_o.o(.text) refers to ctype_o.o(.text) for __rt_ctype_table
    isgraph_o.o(.text) refers to ctype_o.o(.text) for __rt_ctype_table
    islower_o.o(.text) refers to ctype_o.o(.text) for __rt_ctype_table
    isprint_o.o(.text) refers to ctype_o.o(.text) for __rt_ctype_table
    ispunct_o.o(.text) refers to ctype_o.o(.text) for __rt_ctype_table
    isspace_o.o(.text) refers to ctype_o.o(.text) for __rt_ctype_table
    isupper_o.o(.text) refers to ctype_o.o(.text) for __rt_ctype_table
    isxdigit_o.o(.text) refers to ctype_o.o(.text) for __rt_ctype_table
    _strtoul.o(.text) refers to _chval.o(.text) for _chval
    _strtoul.o(.text) refers to errno.o(i.__aeabi_errno_addr) for __aeabi_errno_addr


==============================================================================

Removing Unused input sections from the image.

    Removing main.o(.rev16_text), (4 bytes).
    Removing main.o(.revsh_text), (4 bytes).
    Removing adc-board.o(.rev16_text), (4 bytes).
    Removing adc-board.o(.revsh_text), (4 bytes).
    Removing adc-board.o(i.AdcMcuRead), (172 bytes).
    Removing board.o(.rev16_text), (4 bytes).
    Removing board.o(.revsh_text), (4 bytes).
    Removing board.o(i.BoardGetBatteryLevel), (56 bytes).
    Removing board.o(i.BoardGetRandomSeed), (20 bytes).
    Removing board.o(i.BoardGetUniqueId), (68 bytes).
    Removing board.o(.bss), (12 bytes).
    Removing board.o(.bss), (12 bytes).
    Removing gpio-board.o(.rev16_text), (4 bytes).
    Removing gpio-board.o(.revsh_text), (4 bytes).
    Removing gpio-board.o(i.GpioMcuRemoveInterrupt), (48 bytes).
    Removing gps-board.o(.rev16_text), (4 bytes).
    Removing gps-board.o(.revsh_text), (4 bytes).
    Removing i2c-board.o(.rev16_text), (4 bytes).
    Removing i2c-board.o(.revsh_text), (4 bytes).
    Removing i2c-board.o(i.I2cMcuWaitStandbyState), (228 bytes).
    Removing i2c-board.o(i.I2cSetAddrSize), (12 bytes).
    Removing rtc-board.o(.rev16_text), (4 bytes).
    Removing rtc-board.o(.revsh_text), (4 bytes).
    Removing rtc-board.o(i.RtcStopTimer), (4 bytes).
    Removing spi-board.o(.rev16_text), (4 bytes).
    Removing spi-board.o(.revsh_text), (4 bytes).
    Removing sx1272-board.o(.rev16_text), (4 bytes).
    Removing sx1272-board.o(.revsh_text), (4 bytes).
    Removing timer-board.o(.rev16_text), (4 bytes).
    Removing timer-board.o(.revsh_text), (4 bytes).
    Removing timer-board.o(i.TimerHwDeInit), (8 bytes).
    Removing timer-board.o(i.TimerHwGetTime), (26 bytes).
    Removing timer-board.o(i.TimerHwStop), (26 bytes).
    Removing uart-board.o(.rev16_text), (4 bytes).
    Removing uart-board.o(.revsh_text), (4 bytes).
    Removing uart-board.o(i.UartMcuPutChar), (52 bytes).
    Removing startup_stm32l1xx_md.o(HEAP), (512 bytes).
    Removing system_stm32l1xx.o(.rev16_text), (4 bytes).
    Removing system_stm32l1xx.o(.revsh_text), (4 bytes).
    Removing system_stm32l1xx.o(i.SystemCoreClockUpdate), (164 bytes).
    Removing misc.o(.rev16_text), (4 bytes).
    Removing misc.o(.revsh_text), (4 bytes).
    Removing misc.o(i.NVIC_SetVectorTable), (20 bytes).
    Removing misc.o(i.NVIC_SystemLPConfig), (28 bytes).
    Removing misc.o(i.SysTick_CLKSourceConfig), (28 bytes).
    Removing stm32l1xx_adc.o(.rev16_text), (4 bytes).
    Removing stm32l1xx_adc.o(.revsh_text), (4 bytes).
    Removing stm32l1xx_adc.o(i.ADC_AnalogWatchdogCmd), (16 bytes).
    Removing stm32l1xx_adc.o(i.ADC_AnalogWatchdogSingleChannelConfig), (12 bytes).
    Removing stm32l1xx_adc.o(i.ADC_AnalogWatchdogThresholdsConfig), (6 bytes).
    Removing stm32l1xx_adc.o(i.ADC_AutoInjectedConvCmd), (24 bytes).
    Removing stm32l1xx_adc.o(i.ADC_BankSelection), (24 bytes).
    Removing stm32l1xx_adc.o(i.ADC_ClearFlag), (6 bytes).
    Removing stm32l1xx_adc.o(i.ADC_ClearITPendingBit), (8 bytes).
    Removing stm32l1xx_adc.o(i.ADC_Cmd), (24 bytes).
    Removing stm32l1xx_adc.o(i.ADC_CommonStructInit), (6 bytes).
    Removing stm32l1xx_adc.o(i.ADC_ContinuousModeCmd), (24 bytes).
    Removing stm32l1xx_adc.o(i.ADC_DMACmd), (24 bytes).
    Removing stm32l1xx_adc.o(i.ADC_DMARequestAfterLastTransferCmd), (24 bytes).
    Removing stm32l1xx_adc.o(i.ADC_DiscModeChannelCountConfig), (16 bytes).
    Removing stm32l1xx_adc.o(i.ADC_DiscModeCmd), (24 bytes).
    Removing stm32l1xx_adc.o(i.ADC_EOCOnEachRegularChannelCmd), (24 bytes).
    Removing stm32l1xx_adc.o(i.ADC_ExternalTrigInjectedConvConfig), (12 bytes).
    Removing stm32l1xx_adc.o(i.ADC_ExternalTrigInjectedConvEdgeConfig), (12 bytes).
    Removing stm32l1xx_adc.o(i.ADC_GetConversionValue), (6 bytes).
    Removing stm32l1xx_adc.o(i.ADC_GetFlagStatus), (14 bytes).
    Removing stm32l1xx_adc.o(i.ADC_GetITStatus), (30 bytes).
    Removing stm32l1xx_adc.o(i.ADC_GetInjectedConversionValue), (20 bytes).
    Removing stm32l1xx_adc.o(i.ADC_GetSoftwareStartConvStatus), (14 bytes).
    Removing stm32l1xx_adc.o(i.ADC_GetSoftwareStartInjectedConvCmdStatus), (14 bytes).
    Removing stm32l1xx_adc.o(i.ADC_ITConfig), (24 bytes).
    Removing stm32l1xx_adc.o(i.ADC_InjectedChannelConfig), (126 bytes).
    Removing stm32l1xx_adc.o(i.ADC_InjectedDiscModeCmd), (24 bytes).
    Removing stm32l1xx_adc.o(i.ADC_InjectedSequencerLengthConfig), (16 bytes).
    Removing stm32l1xx_adc.o(i.ADC_PowerDownCmd), (20 bytes).
    Removing stm32l1xx_adc.o(i.ADC_RegularChannelConfig), (216 bytes).
    Removing stm32l1xx_adc.o(i.ADC_SetInjectedOffset), (16 bytes).
    Removing stm32l1xx_adc.o(i.ADC_SoftwareStartConv), (10 bytes).
    Removing stm32l1xx_adc.o(i.ADC_SoftwareStartInjectedConv), (10 bytes).
    Removing stm32l1xx_adc.o(i.ADC_TempSensorVrefintCmd), (32 bytes).
    Removing stm32l1xx_dbgmcu.o(.rev16_text), (4 bytes).
    Removing stm32l1xx_dbgmcu.o(.revsh_text), (4 bytes).
    Removing stm32l1xx_dbgmcu.o(i.DBGMCU_APB1PeriphConfig), (28 bytes).
    Removing stm32l1xx_dbgmcu.o(i.DBGMCU_APB2PeriphConfig), (28 bytes).
    Removing stm32l1xx_dbgmcu.o(i.DBGMCU_GetDEVID), (16 bytes).
    Removing stm32l1xx_dbgmcu.o(i.DBGMCU_GetREVID), (12 bytes).
    Removing stm32l1xx_dma.o(.rev16_text), (4 bytes).
    Removing stm32l1xx_dma.o(.revsh_text), (4 bytes).
    Removing stm32l1xx_dma.o(i.DMA_ClearFlag), (24 bytes).
    Removing stm32l1xx_dma.o(i.DMA_ClearITPendingBit), (24 bytes).
    Removing stm32l1xx_dma.o(i.DMA_Cmd), (26 bytes).
    Removing stm32l1xx_dma.o(i.DMA_DeInit), (248 bytes).
    Removing stm32l1xx_dma.o(i.DMA_GetCurrDataCounter), (6 bytes).
    Removing stm32l1xx_dma.o(i.DMA_GetFlagStatus), (36 bytes).
    Removing stm32l1xx_dma.o(i.DMA_GetITStatus), (36 bytes).
    Removing stm32l1xx_dma.o(i.DMA_ITConfig), (20 bytes).
    Removing stm32l1xx_dma.o(i.DMA_Init), (58 bytes).
    Removing stm32l1xx_dma.o(i.DMA_SetCurrDataCounter), (4 bytes).
    Removing stm32l1xx_dma.o(i.DMA_StructInit), (26 bytes).
    Removing stm32l1xx_exti.o(.rev16_text), (4 bytes).
    Removing stm32l1xx_exti.o(.revsh_text), (4 bytes).
    Removing stm32l1xx_exti.o(i.EXTI_ClearFlag), (12 bytes).
    Removing stm32l1xx_exti.o(i.EXTI_DeInit), (36 bytes).
    Removing stm32l1xx_exti.o(i.EXTI_GenerateSWInterrupt), (16 bytes).
    Removing stm32l1xx_exti.o(i.EXTI_GetFlagStatus), (20 bytes).
    Removing stm32l1xx_exti.o(i.EXTI_StructInit), (14 bytes).
    Removing stm32l1xx_gpio.o(.rev16_text), (4 bytes).
    Removing stm32l1xx_gpio.o(.revsh_text), (4 bytes).
    Removing stm32l1xx_gpio.o(i.GPIO_DeInit), (244 bytes).
    Removing stm32l1xx_gpio.o(i.GPIO_PinLockConfig), (26 bytes).
    Removing stm32l1xx_gpio.o(i.GPIO_ReadInputData), (4 bytes).
    Removing stm32l1xx_gpio.o(i.GPIO_ReadOutputData), (4 bytes).
    Removing stm32l1xx_gpio.o(i.GPIO_ReadOutputDataBit), (14 bytes).
    Removing stm32l1xx_gpio.o(i.GPIO_StructInit), (18 bytes).
    Removing stm32l1xx_gpio.o(i.GPIO_ToggleBits), (8 bytes).
    Removing stm32l1xx_gpio.o(i.GPIO_Write), (4 bytes).
    Removing stm32l1xx_gpio.o(i.GPIO_WriteBit), (12 bytes).
    Removing stm32l1xx_i2c.o(.rev16_text), (4 bytes).
    Removing stm32l1xx_i2c.o(.revsh_text), (4 bytes).
    Removing stm32l1xx_i2c.o(i.I2C_ARPCmd), (24 bytes).
    Removing stm32l1xx_i2c.o(i.I2C_CalculatePEC), (24 bytes).
    Removing stm32l1xx_i2c.o(i.I2C_ClearFlag), (6 bytes).
    Removing stm32l1xx_i2c.o(i.I2C_ClearITPendingBit), (6 bytes).
    Removing stm32l1xx_i2c.o(i.I2C_DMACmd), (24 bytes).
    Removing stm32l1xx_i2c.o(i.I2C_DMALastTransferCmd), (24 bytes).
    Removing stm32l1xx_i2c.o(i.I2C_DualAddressCmd), (24 bytes).
    Removing stm32l1xx_i2c.o(i.I2C_FastModeDutyCycleConfig), (26 bytes).
    Removing stm32l1xx_i2c.o(i.I2C_GeneralCallCmd), (24 bytes).
    Removing stm32l1xx_i2c.o(i.I2C_GetITStatus), (34 bytes).
    Removing stm32l1xx_i2c.o(i.I2C_GetLastEvent), (14 bytes).
    Removing stm32l1xx_i2c.o(i.I2C_GetPEC), (6 bytes).
    Removing stm32l1xx_i2c.o(i.I2C_ITConfig), (20 bytes).
    Removing stm32l1xx_i2c.o(i.I2C_NACKPositionConfig), (26 bytes).
    Removing stm32l1xx_i2c.o(i.I2C_OwnAddress2Config), (16 bytes).
    Removing stm32l1xx_i2c.o(i.I2C_PECPositionConfig), (26 bytes).
    Removing stm32l1xx_i2c.o(i.I2C_ReadRegister), (16 bytes).
    Removing stm32l1xx_i2c.o(i.I2C_SMBusAlertConfig), (26 bytes).
    Removing stm32l1xx_i2c.o(i.I2C_SoftwareResetCmd), (24 bytes).
    Removing stm32l1xx_i2c.o(i.I2C_StretchClockCmd), (24 bytes).
    Removing stm32l1xx_i2c.o(i.I2C_StructInit), (28 bytes).
    Removing stm32l1xx_i2c.o(i.I2C_TransmitPEC), (24 bytes).
    Removing stm32l1xx_pwr.o(.rev16_text), (4 bytes).
    Removing stm32l1xx_pwr.o(.revsh_text), (4 bytes).
    Removing stm32l1xx_pwr.o(i.PWR_ClearFlag), (16 bytes).
    Removing stm32l1xx_pwr.o(i.PWR_DeInit), (24 bytes).
    Removing stm32l1xx_pwr.o(i.PWR_EnterLowPowerRunMode), (48 bytes).
    Removing stm32l1xx_pwr.o(i.PWR_EnterSTANDBYMode), (40 bytes).
    Removing stm32l1xx_pwr.o(i.PWR_EnterSleepMode), (44 bytes).
    Removing stm32l1xx_pwr.o(i.PWR_GetFlagStatus), (20 bytes).
    Removing stm32l1xx_pwr.o(i.PWR_PVDLevelConfig), (20 bytes).
    Removing stm32l1xx_pwr.o(i.PWR_VoltageScalingConfig), (24 bytes).
    Removing stm32l1xx_pwr.o(i.PWR_WakeUpPinCmd), (20 bytes).
    Removing stm32l1xx_rcc.o(.rev16_text), (4 bytes).
    Removing stm32l1xx_rcc.o(.revsh_text), (4 bytes).
    Removing stm32l1xx_rcc.o(i.RCC_AHBPeriphClockLPModeCmd), (28 bytes).
    Removing stm32l1xx_rcc.o(i.RCC_AHBPeriphResetCmd), (28 bytes).
    Removing stm32l1xx_rcc.o(i.RCC_APB1PeriphClockLPModeCmd), (28 bytes).
    Removing stm32l1xx_rcc.o(i.RCC_APB2PeriphClockLPModeCmd), (28 bytes).
    Removing stm32l1xx_rcc.o(i.RCC_AdjustHSICalibrationValue), (20 bytes).
    Removing stm32l1xx_rcc.o(i.RCC_AdjustMSICalibrationValue), (12 bytes).
    Removing stm32l1xx_rcc.o(i.RCC_ClearFlag), (16 bytes).
    Removing stm32l1xx_rcc.o(i.RCC_ClearITPendingBit), (12 bytes).
    Removing stm32l1xx_rcc.o(i.RCC_ClockSecuritySystemCmd), (12 bytes).
    Removing stm32l1xx_rcc.o(i.RCC_DeInit), (68 bytes).
    Removing stm32l1xx_rcc.o(i.RCC_GetITStatus), (20 bytes).
    Removing stm32l1xx_rcc.o(i.RCC_HCLKConfig), (20 bytes).
    Removing stm32l1xx_rcc.o(i.RCC_ITConfig), (28 bytes).
    Removing stm32l1xx_rcc.o(i.RCC_LSEClockSecuritySystemCmd), (12 bytes).
    Removing stm32l1xx_rcc.o(i.RCC_LSICmd), (12 bytes).
    Removing stm32l1xx_rcc.o(i.RCC_MCOConfig), (12 bytes).
    Removing stm32l1xx_rcc.o(i.RCC_MSICmd), (12 bytes).
    Removing stm32l1xx_rcc.o(i.RCC_MSIRangeConfig), (20 bytes).
    Removing stm32l1xx_rcc.o(i.RCC_PCLK1Config), (20 bytes).
    Removing stm32l1xx_rcc.o(i.RCC_PCLK2Config), (20 bytes).
    Removing stm32l1xx_rcc.o(i.RCC_PLLConfig), (16 bytes).
    Removing stm32l1xx_rcc.o(i.RCC_WaitForHSEStartUp), (48 bytes).
    Removing stm32l1xx_rtc.o(.rev16_text), (4 bytes).
    Removing stm32l1xx_rtc.o(.revsh_text), (4 bytes).
    Removing stm32l1xx_rtc.o(i.RTC_AlarmStructInit), (20 bytes).
    Removing stm32l1xx_rtc.o(i.RTC_AlarmSubSecondConfig), (44 bytes).
    Removing stm32l1xx_rtc.o(i.RTC_BypassShadowCmd), (48 bytes).
    Removing stm32l1xx_rtc.o(i.RTC_CalibOutputCmd), (48 bytes).
    Removing stm32l1xx_rtc.o(i.RTC_CalibOutputConfig), (40 bytes).
    Removing stm32l1xx_rtc.o(i.RTC_CoarseCalibCmd), (64 bytes).
    Removing stm32l1xx_rtc.o(i.RTC_CoarseCalibConfig), (52 bytes).
    Removing stm32l1xx_rtc.o(i.RTC_DayLightSavingConfig), (44 bytes).
    Removing stm32l1xx_rtc.o(i.RTC_DeInit), (184 bytes).
    Removing stm32l1xx_rtc.o(i.RTC_GetAlarm), (108 bytes).
    Removing stm32l1xx_rtc.o(i.RTC_GetAlarmSubSecond), (32 bytes).
    Removing stm32l1xx_rtc.o(i.RTC_GetFlagStatus), (28 bytes).
    Removing stm32l1xx_rtc.o(i.RTC_GetStoreOperation), (16 bytes).
    Removing stm32l1xx_rtc.o(i.RTC_GetSubSecond), (16 bytes).
    Removing stm32l1xx_rtc.o(i.RTC_GetTimeStamp), (136 bytes).
    Removing stm32l1xx_rtc.o(i.RTC_GetTimeStampSubSecond), (12 bytes).
    Removing stm32l1xx_rtc.o(i.RTC_GetWakeUpCounter), (12 bytes).
    Removing stm32l1xx_rtc.o(i.RTC_OutputConfig), (44 bytes).
    Removing stm32l1xx_rtc.o(i.RTC_OutputTypeConfig), (24 bytes).
    Removing stm32l1xx_rtc.o(i.RTC_ReadBackupRegister), (20 bytes).
    Removing stm32l1xx_rtc.o(i.RTC_RefClockCmd), (64 bytes).
    Removing stm32l1xx_rtc.o(i.RTC_SetWakeUpCounter), (28 bytes).
    Removing stm32l1xx_rtc.o(i.RTC_SmoothCalibConfig), (72 bytes).
    Removing stm32l1xx_rtc.o(i.RTC_StructInit), (14 bytes).
    Removing stm32l1xx_rtc.o(i.RTC_SynchroShiftConfig), (96 bytes).
    Removing stm32l1xx_rtc.o(i.RTC_TamperCmd), (28 bytes).
    Removing stm32l1xx_rtc.o(i.RTC_TamperFilterConfig), (24 bytes).
    Removing stm32l1xx_rtc.o(i.RTC_TamperPinsPrechargeDuration), (24 bytes).
    Removing stm32l1xx_rtc.o(i.RTC_TamperPullUpCmd), (32 bytes).
    Removing stm32l1xx_rtc.o(i.RTC_TamperSamplingFreqConfig), (24 bytes).
    Removing stm32l1xx_rtc.o(i.RTC_TamperTriggerConfig), (32 bytes).
    Removing stm32l1xx_rtc.o(i.RTC_TimeStampCmd), (52 bytes).
    Removing stm32l1xx_rtc.o(i.RTC_TimeStampOnTamperDetectionCmd), (32 bytes).
    Removing stm32l1xx_rtc.o(i.RTC_WakeUpClockConfig), (40 bytes).
    Removing stm32l1xx_rtc.o(i.RTC_WakeUpCmd), (96 bytes).
    Removing stm32l1xx_rtc.o(i.RTC_WriteBackupRegister), (20 bytes).
    Removing stm32l1xx_rtc.o(i.RTC_WriteProtectionCmd), (28 bytes).
    Removing stm32l1xx_spi.o(.rev16_text), (4 bytes).
    Removing stm32l1xx_spi.o(.revsh_text), (4 bytes).
    Removing stm32l1xx_spi.o(i.I2S_Cmd), (24 bytes).
    Removing stm32l1xx_spi.o(i.I2S_Init), (168 bytes).
    Removing stm32l1xx_spi.o(i.I2S_StructInit), (18 bytes).
    Removing stm32l1xx_spi.o(i.SPI_BiDirectionalLineConfig), (26 bytes).
    Removing stm32l1xx_spi.o(i.SPI_CalculateCRC), (24 bytes).
    Removing stm32l1xx_spi.o(i.SPI_DataSizeConfig), (16 bytes).
    Removing stm32l1xx_spi.o(i.SPI_GetCRC), (12 bytes).
    Removing stm32l1xx_spi.o(i.SPI_GetCRCPolynomial), (4 bytes).
    Removing stm32l1xx_spi.o(i.SPI_I2S_ClearFlag), (6 bytes).
    Removing stm32l1xx_spi.o(i.SPI_I2S_ClearITPendingBit), (14 bytes).
    Removing stm32l1xx_spi.o(i.SPI_I2S_DMACmd), (20 bytes).
    Removing stm32l1xx_spi.o(i.SPI_I2S_GetITStatus), (44 bytes).
    Removing stm32l1xx_spi.o(i.SPI_I2S_ITConfig), (28 bytes).
    Removing stm32l1xx_spi.o(i.SPI_NSSInternalSoftwareConfig), (28 bytes).
    Removing stm32l1xx_spi.o(i.SPI_SSOutputCmd), (24 bytes).
    Removing stm32l1xx_spi.o(i.SPI_TransmitCRC), (10 bytes).
    Removing stm32l1xx_syscfg.o(.rev16_text), (4 bytes).
    Removing stm32l1xx_syscfg.o(.revsh_text), (4 bytes).
    Removing stm32l1xx_syscfg.o(i.SYSCFG_DeInit), (22 bytes).
    Removing stm32l1xx_syscfg.o(i.SYSCFG_GetBootMode), (16 bytes).
    Removing stm32l1xx_syscfg.o(i.SYSCFG_MemoryRemapConfig), (12 bytes).
    Removing stm32l1xx_syscfg.o(i.SYSCFG_RIChannelSpeedConfig), (28 bytes).
    Removing stm32l1xx_syscfg.o(i.SYSCFG_RIDeInit), (36 bytes).
    Removing stm32l1xx_syscfg.o(i.SYSCFG_RIHysteresisConfig), (180 bytes).
    Removing stm32l1xx_syscfg.o(i.SYSCFG_RIIOSwitchConfig), (56 bytes).
    Removing stm32l1xx_syscfg.o(i.SYSCFG_RIResistorConfig), (28 bytes).
    Removing stm32l1xx_syscfg.o(i.SYSCFG_RISwitchControlModeCmd), (32 bytes).
    Removing stm32l1xx_syscfg.o(i.SYSCFG_RITIMInputCaptureConfig), (64 bytes).
    Removing stm32l1xx_syscfg.o(i.SYSCFG_RITIMSelect), (20 bytes).
    Removing stm32l1xx_syscfg.o(i.SYSCFG_USBPuCmd), (32 bytes).
    Removing stm32l1xx_tim.o(.rev16_text), (4 bytes).
    Removing stm32l1xx_tim.o(.revsh_text), (4 bytes).
    Removing stm32l1xx_tim.o(i.TI1_Config), (46 bytes).
    Removing stm32l1xx_tim.o(i.TI2_Config), (54 bytes).
    Removing stm32l1xx_tim.o(i.TI3_Config), (50 bytes).
    Removing stm32l1xx_tim.o(i.TI4_Config), (54 bytes).
    Removing stm32l1xx_tim.o(i.TIM_ARRPreloadConfig), (24 bytes).
    Removing stm32l1xx_tim.o(i.TIM_CCxCmd), (22 bytes).
    Removing stm32l1xx_tim.o(i.TIM_ClearFlag), (6 bytes).
    Removing stm32l1xx_tim.o(i.TIM_ClearOC1Ref), (12 bytes).
    Removing stm32l1xx_tim.o(i.TIM_ClearOC2Ref), (20 bytes).
    Removing stm32l1xx_tim.o(i.TIM_ClearOC3Ref), (12 bytes).
    Removing stm32l1xx_tim.o(i.TIM_ClearOC4Ref), (20 bytes).
    Removing stm32l1xx_tim.o(i.TIM_CounterModeConfig), (12 bytes).
    Removing stm32l1xx_tim.o(i.TIM_DMACmd), (20 bytes).
    Removing stm32l1xx_tim.o(i.TIM_DMAConfig), (8 bytes).
    Removing stm32l1xx_tim.o(i.TIM_DeInit), (272 bytes).
    Removing stm32l1xx_tim.o(i.TIM_ETRClockMode1Config), (32 bytes).
    Removing stm32l1xx_tim.o(i.TIM_ETRClockMode2Config), (20 bytes).
    Removing stm32l1xx_tim.o(i.TIM_ETRConfig), (24 bytes).
    Removing stm32l1xx_tim.o(i.TIM_EncoderInterfaceConfig), (50 bytes).
    Removing stm32l1xx_tim.o(i.TIM_ForcedOC1Config), (12 bytes).
    Removing stm32l1xx_tim.o(i.TIM_ForcedOC2Config), (20 bytes).
    Removing stm32l1xx_tim.o(i.TIM_ForcedOC3Config), (12 bytes).
    Removing stm32l1xx_tim.o(i.TIM_ForcedOC4Config), (20 bytes).
    Removing stm32l1xx_tim.o(i.TIM_GenerateEvent), (4 bytes).
    Removing stm32l1xx_tim.o(i.TIM_GetCapture1), (4 bytes).
    Removing stm32l1xx_tim.o(i.TIM_GetCapture2), (4 bytes).
    Removing stm32l1xx_tim.o(i.TIM_GetCapture3), (4 bytes).
    Removing stm32l1xx_tim.o(i.TIM_GetCapture4), (4 bytes).
    Removing stm32l1xx_tim.o(i.TIM_GetCounter), (4 bytes).
    Removing stm32l1xx_tim.o(i.TIM_GetFlagStatus), (14 bytes).
    Removing stm32l1xx_tim.o(i.TIM_GetPrescaler), (4 bytes).
    Removing stm32l1xx_tim.o(i.TIM_ICInit), (98 bytes).
    Removing stm32l1xx_tim.o(i.TIM_ICStructInit), (16 bytes).
    Removing stm32l1xx_tim.o(i.TIM_ITRxExternalClockConfig), (20 bytes).
    Removing stm32l1xx_tim.o(i.TIM_InternalClockConfig), (10 bytes).
    Removing stm32l1xx_tim.o(i.TIM_OC1FastConfig), (12 bytes).
    Removing stm32l1xx_tim.o(i.TIM_OC1Init), (48 bytes).
    Removing stm32l1xx_tim.o(i.TIM_OC1PolarityConfig), (12 bytes).
    Removing stm32l1xx_tim.o(i.TIM_OC1PreloadConfig), (12 bytes).
    Removing stm32l1xx_tim.o(i.TIM_OC2FastConfig), (20 bytes).
    Removing stm32l1xx_tim.o(i.TIM_OC2Init), (60 bytes).
    Removing stm32l1xx_tim.o(i.TIM_OC2PolarityConfig), (20 bytes).
    Removing stm32l1xx_tim.o(i.TIM_OC2PreloadConfig), (20 bytes).
    Removing stm32l1xx_tim.o(i.TIM_OC3FastConfig), (12 bytes).
    Removing stm32l1xx_tim.o(i.TIM_OC3Init), (56 bytes).
    Removing stm32l1xx_tim.o(i.TIM_OC3PolarityConfig), (20 bytes).
    Removing stm32l1xx_tim.o(i.TIM_OC3PreloadConfig), (12 bytes).
    Removing stm32l1xx_tim.o(i.TIM_OC4FastConfig), (20 bytes).
    Removing stm32l1xx_tim.o(i.TIM_OC4Init), (60 bytes).
    Removing stm32l1xx_tim.o(i.TIM_OC4PolarityConfig), (20 bytes).
    Removing stm32l1xx_tim.o(i.TIM_OC4PreloadConfig), (20 bytes).
    Removing stm32l1xx_tim.o(i.TIM_OCStructInit), (12 bytes).
    Removing stm32l1xx_tim.o(i.TIM_PWMIConfig), (110 bytes).
    Removing stm32l1xx_tim.o(i.TIM_PrescalerConfig), (6 bytes).
    Removing stm32l1xx_tim.o(i.TIM_RemapConfig), (18 bytes).
    Removing stm32l1xx_tim.o(i.TIM_SelectCCDMA), (24 bytes).
    Removing stm32l1xx_tim.o(i.TIM_SelectHallSensor), (24 bytes).
    Removing stm32l1xx_tim.o(i.TIM_SelectInputTrigger), (12 bytes).
    Removing stm32l1xx_tim.o(i.TIM_SelectMasterSlaveMode), (16 bytes).
    Removing stm32l1xx_tim.o(i.TIM_SelectOCREFClear), (16 bytes).
    Removing stm32l1xx_tim.o(i.TIM_SelectOCxM), (76 bytes).
    Removing stm32l1xx_tim.o(i.TIM_SelectOnePulseMode), (16 bytes).
    Removing stm32l1xx_tim.o(i.TIM_SelectOutputTrigger), (16 bytes).
    Removing stm32l1xx_tim.o(i.TIM_SelectSlaveMode), (16 bytes).
    Removing stm32l1xx_tim.o(i.TIM_SetAutoreload), (4 bytes).
    Removing stm32l1xx_tim.o(i.TIM_SetClockDivision), (16 bytes).
    Removing stm32l1xx_tim.o(i.TIM_SetCompare1), (4 bytes).
    Removing stm32l1xx_tim.o(i.TIM_SetCompare2), (4 bytes).
    Removing stm32l1xx_tim.o(i.TIM_SetCompare3), (4 bytes).
    Removing stm32l1xx_tim.o(i.TIM_SetCompare4), (4 bytes).
    Removing stm32l1xx_tim.o(i.TIM_SetCounter), (4 bytes).
    Removing stm32l1xx_tim.o(i.TIM_SetIC1Prescaler), (16 bytes).
    Removing stm32l1xx_tim.o(i.TIM_SetIC2Prescaler), (24 bytes).
    Removing stm32l1xx_tim.o(i.TIM_SetIC3Prescaler), (16 bytes).
    Removing stm32l1xx_tim.o(i.TIM_SetIC4Prescaler), (24 bytes).
    Removing stm32l1xx_tim.o(i.TIM_TIxExternalClockConfig), (48 bytes).
    Removing stm32l1xx_tim.o(i.TIM_TimeBaseStructInit), (16 bytes).
    Removing stm32l1xx_tim.o(i.TIM_UpdateDisableConfig), (24 bytes).
    Removing stm32l1xx_tim.o(i.TIM_UpdateRequestConfig), (24 bytes).
    Removing stm32l1xx_usart.o(.rev16_text), (4 bytes).
    Removing stm32l1xx_usart.o(.revsh_text), (4 bytes).
    Removing stm32l1xx_usart.o(i.USART_ClearFlag), (8 bytes).
    Removing stm32l1xx_usart.o(i.USART_ClearITPendingBit), (16 bytes).
    Removing stm32l1xx_usart.o(i.USART_ClockInit), (28 bytes).
    Removing stm32l1xx_usart.o(i.USART_ClockStructInit), (12 bytes).
    Removing stm32l1xx_usart.o(i.USART_DMACmd), (20 bytes).
    Removing stm32l1xx_usart.o(i.USART_GetFlagStatus), (14 bytes).
    Removing stm32l1xx_usart.o(i.USART_HalfDuplexCmd), (24 bytes).
    Removing stm32l1xx_usart.o(i.USART_IrDACmd), (24 bytes).
    Removing stm32l1xx_usart.o(i.USART_IrDAConfig), (16 bytes).
    Removing stm32l1xx_usart.o(i.USART_LINBreakDetectLengthConfig), (16 bytes).
    Removing stm32l1xx_usart.o(i.USART_LINCmd), (24 bytes).
    Removing stm32l1xx_usart.o(i.USART_OneBitMethodCmd), (24 bytes).
    Removing stm32l1xx_usart.o(i.USART_OverSampling8Cmd), (24 bytes).
    Removing stm32l1xx_usart.o(i.USART_ReceiverWakeUpCmd), (24 bytes).
    Removing stm32l1xx_usart.o(i.USART_SendBreak), (10 bytes).
    Removing stm32l1xx_usart.o(i.USART_SetAddress), (16 bytes).
    Removing stm32l1xx_usart.o(i.USART_SetGuardTime), (16 bytes).
    Removing stm32l1xx_usart.o(i.USART_SetPrescaler), (16 bytes).
    Removing stm32l1xx_usart.o(i.USART_SmartCardCmd), (24 bytes).
    Removing stm32l1xx_usart.o(i.USART_SmartCardNACKCmd), (24 bytes).
    Removing stm32l1xx_usart.o(i.USART_StructInit), (22 bytes).
    Removing stm32l1xx_usart.o(i.USART_WakeUpConfig), (16 bytes).
    Removing sysirqhandlers.o(.rev16_text), (4 bytes).
    Removing sysirqhandlers.o(.revsh_text), (4 bytes).
    Removing utilities.o(.rev16_text), (4 bytes).
    Removing utilities.o(.revsh_text), (4 bytes).
    Removing utilities.o(i.memcpyr), (22 bytes).
    Removing utilities.o(i.memset1), (14 bytes).
    Removing utilities.o(i.rand1), (40 bytes).
    Removing utilities.o(i.randr), (26 bytes).
    Removing utilities.o(i.srand1), (12 bytes).
    Removing utilities.o(.data), (4 bytes).
    Removing gpio-ioe.o(.rev16_text), (4 bytes).
    Removing gpio-ioe.o(.revsh_text), (4 bytes).
    Removing mag3110.o(.rev16_text), (4 bytes).
    Removing mag3110.o(.revsh_text), (4 bytes).
    Removing mag3110.o(i.MAG3110GetDeviceAddr), (12 bytes).
    Removing mma8451.o(.rev16_text), (4 bytes).
    Removing mma8451.o(.revsh_text), (4 bytes).
    Removing mma8451.o(i.MMA8451GetDeviceAddr), (12 bytes).
    Removing mpl3115.o(.rev16_text), (4 bytes).
    Removing mpl3115.o(.revsh_text), (4 bytes).
    Removing mpl3115.o(i.MPL3115GetDeviceAddr), (12 bytes).
    Removing mpl3115.o(i.MPL3115ReadAltitude), (196 bytes).
    Removing mpl3115.o(i.MPL3115ReadPressure), (208 bytes).
    Removing mpl3115.o(i.MPL3115ReadTemperature), (260 bytes).
    Removing mpl3115.o(i.MPL3115SetModeAltimeter), (40 bytes).
    Removing mpl3115.o(i.MPL3115SetModeBarometer), (40 bytes).
    Removing mpl3115.o(i.MPL3115SetModeStandby), (32 bytes).
    Removing mpl3115.o(i.MPL3115ToggleOneShot), (64 bytes).
    Removing sx1509.o(.rev16_text), (4 bytes).
    Removing sx1509.o(.revsh_text), (4 bytes).
    Removing sx1509.o(i.SX1509GetDeviceAddr), (12 bytes).
    Removing sx9500.o(.rev16_text), (4 bytes).
    Removing sx9500.o(.revsh_text), (4 bytes).
    Removing sx9500.o(i.SX9500GetDeviceAddr), (12 bytes).
    Removing sx9500.o(i.SX9500LockUntilDetection), (148 bytes).
    Removing sx1272.o(.rev16_text), (4 bytes).
    Removing sx1272.o(.revsh_text), (4 bytes).
    Removing sx1272.o(i.SX1272OnDio5Irq), (2 bytes).
    Removing adc.o(.rev16_text), (4 bytes).
    Removing adc.o(.revsh_text), (4 bytes).
    Removing adc.o(i.AdcDeInit), (12 bytes).
    Removing adc.o(i.AdcReadChannel), (24 bytes).
    Removing delay.o(.rev16_text), (4 bytes).
    Removing delay.o(.revsh_text), (4 bytes).
    Removing delay.o(i.Delay), (24 bytes).
    Removing fifo.o(i.FifoFlush), (8 bytes).
    Removing gpio.o(.rev16_text), (4 bytes).
    Removing gpio.o(.revsh_text), (4 bytes).
    Removing gpio.o(i.GpioRemoveInterrupt), (2 bytes).
    Removing gps.o(.rev16_text), (4 bytes).
    Removing gps.o(.revsh_text), (4 bytes).
    Removing gps.o(i.GpsGetLatestGpsAltitude), (44 bytes).
    Removing gps.o(i.GpsGetLatestGpsPositionBinary), (44 bytes).
    Removing gps.o(i.GpsGetLatestGpsPositionDouble), (44 bytes).
    Removing gps.o(i.GpsGetPpsDetectedState), (20 bytes).
    Removing gps.o(i.GpsHasFix), (24 bytes).
    Removing gps.o(i.GpsResetPosition), (32 bytes).
    Removing gps.o(.constdata), (6 bytes).
    Removing gps.o(.constdata), (6 bytes).
    Removing gps.o(.constdata), (4 bytes).
    Removing gps.o(.constdata), (4 bytes).
    Removing gps.o(.constdata), (4 bytes).
    Removing gps.o(.constdata), (4 bytes).
    Removing i2c.o(.rev16_text), (4 bytes).
    Removing i2c.o(.revsh_text), (4 bytes).
    Removing i2c.o(i.I2cRead), (28 bytes).
    Removing i2c.o(i.I2cWrite), (76 bytes).
    Removing timer.o(.rev16_text), (4 bytes).
    Removing timer.o(.revsh_text), (4 bytes).
    Removing timer.o(i.TimerGetCurrentTime), (20 bytes).
    Removing timer.o(i.TimerReset), (20 bytes).
    Removing uart.o(.rev16_text), (4 bytes).
    Removing uart.o(.revsh_text), (4 bytes).
    Removing uart.o(i.UartGetBuffer), (48 bytes).
    Removing uart.o(i.UartPutBuffer), (68 bytes).
    Removing uart.o(i.UartPutChar), (14 bytes).
    Removing fadd.o(.text), (176 bytes).
    Removing fmul.o(.text), (100 bytes).
    Removing fscalb.o(.text), (24 bytes).
    Removing fflti.o(.text), (18 bytes).
    Removing ffltui.o(.text), (10 bytes).
    Removing ffixui.o(.text), (40 bytes).
    Removing d2f.o(.text), (56 bytes).
    Removing fepilogue.o(.text), (110 bytes).

436 unused section(s) (total 12364 bytes) removed from the image.

==============================================================================

Image Symbol Table

    Local Symbols

    Symbol Name                              Value     Ov Type        Size  Object(Section)

    ../clib/microlib/ctype/ctype.c           0x00000000   Number         0  isblank_o.o ABSOLUTE
    ../clib/microlib/ctype/ctype.c           0x00000000   Number         0  isupper_o.o ABSOLUTE
    ../clib/microlib/ctype/ctype.c           0x00000000   Number         0  islower_o.o ABSOLUTE
    ../clib/microlib/ctype/ctype.c           0x00000000   Number         0  isspace_o.o ABSOLUTE
    ../clib/microlib/ctype/ctype.c           0x00000000   Number         0  ispunct_o.o ABSOLUTE
    ../clib/microlib/ctype/ctype.c           0x00000000   Number         0  isgraph_o.o ABSOLUTE
    ../clib/microlib/ctype/ctype.c           0x00000000   Number         0  iscntrl_o.o ABSOLUTE
    ../clib/microlib/ctype/ctype.c           0x00000000   Number         0  ctype_o.o ABSOLUTE
    ../clib/microlib/ctype/ctype.c           0x00000000   Number         0  isdigit_o.o ABSOLUTE
    ../clib/microlib/ctype/ctype.c           0x00000000   Number         0  isalnum_o.o ABSOLUTE
    ../clib/microlib/ctype/ctype.c           0x00000000   Number         0  isalpha_o.o ABSOLUTE
    ../clib/microlib/ctype/ctype.c           0x00000000   Number         0  isxdigit_o.o ABSOLUTE
    ../clib/microlib/ctype/ctype.c           0x00000000   Number         0  isprint_o.o ABSOLUTE
    ../clib/microlib/errno.c                 0x00000000   Number         0  errno.o ABSOLUTE
    ../clib/microlib/init/entry.s            0x00000000   Number         0  entry2.o ABSOLUTE
    ../clib/microlib/init/entry.s            0x00000000   Number         0  entry9b.o ABSOLUTE
    ../clib/microlib/init/entry.s            0x00000000   Number         0  entry7a.o ABSOLUTE
    ../clib/microlib/init/entry.s            0x00000000   Number         0  entry7b.o ABSOLUTE
    ../clib/microlib/init/entry.s            0x00000000   Number         0  entry10a.o ABSOLUTE
    ../clib/microlib/init/entry.s            0x00000000   Number         0  entry8a.o ABSOLUTE
    ../clib/microlib/init/entry.s            0x00000000   Number         0  entry5.o ABSOLUTE
    ../clib/microlib/init/entry.s            0x00000000   Number         0  entry9a.o ABSOLUTE
    ../clib/microlib/init/entry.s            0x00000000   Number         0  entry8b.o ABSOLUTE
    ../clib/microlib/init/entry.s            0x00000000   Number         0  entry11b.o ABSOLUTE
    ../clib/microlib/init/entry.s            0x00000000   Number         0  entry10b.o ABSOLUTE
    ../clib/microlib/init/entry.s            0x00000000   Number         0  entry11a.o ABSOLUTE
    ../clib/microlib/init/entry.s            0x00000000   Number         0  entry.o ABSOLUTE
    ../clib/microlib/longlong.c              0x00000000   Number         0  llshl.o ABSOLUTE
    ../clib/microlib/longlong.c              0x00000000   Number         0  llushr.o ABSOLUTE
    ../clib/microlib/longlong.c              0x00000000   Number         0  llsshr.o ABSOLUTE
    ../clib/microlib/string/memcpy.c         0x00000000   Number         0  memcpya.o ABSOLUTE
    ../clib/microlib/string/memcpy.c         0x00000000   Number         0  memcpyb.o ABSOLUTE
    ../clib/microlib/string/memset.c         0x00000000   Number         0  memseta.o ABSOLUTE
    ../clib/microlib/string/strncmp.c        0x00000000   Number         0  strncmp.o ABSOLUTE
    ../clib/microlib/stubs.s                 0x00000000   Number         0  iusefp.o ABSOLUTE
    ../clib/scanf.c                          0x00000000   Number         0  _strtoul.o ABSOLUTE
    ../clib/scanf.c                          0x00000000   Number         0  _chval.o ABSOLUTE
    ../clib/scanf.c                          0x00000000   Number         0  strtol.o ABSOLUTE
    ../clib/scanf.c                          0x00000000   Number         0  atoi.o ABSOLUTE
    ../fplib/microlib/d2f.c                  0x00000000   Number         0  d2f.o ABSOLUTE
    ../fplib/microlib/fpadd.c                0x00000000   Number         0  dadd.o ABSOLUTE
    ../fplib/microlib/fpadd.c                0x00000000   Number         0  fadd.o ABSOLUTE
    ../fplib/microlib/fpdiv.c                0x00000000   Number         0  ddiv.o ABSOLUTE
    ../fplib/microlib/fpepilogue.c           0x00000000   Number         0  depilogue.o ABSOLUTE
    ../fplib/microlib/fpepilogue.c           0x00000000   Number         0  fepilogue.o ABSOLUTE
    ../fplib/microlib/fpfix.c                0x00000000   Number         0  dfixui.o ABSOLUTE
    ../fplib/microlib/fpfix.c                0x00000000   Number         0  dfixul.o ABSOLUTE
    ../fplib/microlib/fpfix.c                0x00000000   Number         0  ffixui.o ABSOLUTE
    ../fplib/microlib/fpfix.c                0x00000000   Number         0  dfixi.o ABSOLUTE
    ../fplib/microlib/fpflt.c                0x00000000   Number         0  dfltui.o ABSOLUTE
    ../fplib/microlib/fpflt.c                0x00000000   Number         0  dflti.o ABSOLUTE
    ../fplib/microlib/fpflt.c                0x00000000   Number         0  ffltui.o ABSOLUTE
    ../fplib/microlib/fpflt.c                0x00000000   Number         0  fflti.o ABSOLUTE
    ../fplib/microlib/fpflt.c                0x00000000   Number         0  dfltul.o ABSOLUTE
    ../fplib/microlib/fpmul.c                0x00000000   Number         0  fmul.o ABSOLUTE
    ../fplib/microlib/fpmul.c                0x00000000   Number         0  dmul.o ABSOLUTE
    ../fplib/microlib/fprnd.c                0x00000000   Number         0  drnd.o ABSOLUTE
    ../fplib/microlib/fpscalb.c              0x00000000   Number         0  dscalb.o ABSOLUTE
    ../fplib/microlib/fpscalb.c              0x00000000   Number         0  fscalb.o ABSOLUTE
    ../mathlib/ceil.c                        0x00000000   Number         0  ceil.o ABSOLUTE
    ../mathlib/floor.c                       0x00000000   Number         0  floor.o ABSOLUTE
    ../mathlib/round.c                       0x00000000   Number         0  round.o ABSOLUTE
    ..\..\..\src\apps\ping-pong\LoRaMote\main.c 0x00000000   Number         0  main.o ABSOLUTE
    ..\..\..\src\boards\LoRaMote\adc-board.c 0x00000000   Number         0  adc-board.o ABSOLUTE
    ..\..\..\src\boards\LoRaMote\board.c     0x00000000   Number         0  board.o ABSOLUTE
    ..\..\..\src\boards\LoRaMote\cmsis\arm-std\startup_stm32l1xx_md.s 0x00000000   Number         0  startup_stm32l1xx_md.o ABSOLUTE
    ..\..\..\src\boards\LoRaMote\cmsis\system_stm32l1xx.c 0x00000000   Number         0  system_stm32l1xx.o ABSOLUTE
    ..\..\..\src\boards\LoRaMote\gpio-board.c 0x00000000   Number         0  gpio-board.o ABSOLUTE
    ..\..\..\src\boards\LoRaMote\gps-board.c 0x00000000   Number         0  gps-board.o ABSOLUTE
    ..\..\..\src\boards\LoRaMote\i2c-board.c 0x00000000   Number         0  i2c-board.o ABSOLUTE
    ..\..\..\src\boards\LoRaMote\rtc-board.c 0x00000000   Number         0  rtc-board.o ABSOLUTE
    ..\..\..\src\boards\LoRaMote\spi-board.c 0x00000000   Number         0  spi-board.o ABSOLUTE
    ..\..\..\src\boards\LoRaMote\sx1272-board.c 0x00000000   Number         0  sx1272-board.o ABSOLUTE
    ..\..\..\src\boards\LoRaMote\timer-board.c 0x00000000   Number         0  timer-board.o ABSOLUTE
    ..\..\..\src\boards\LoRaMote\uart-board.c 0x00000000   Number         0  uart-board.o ABSOLUTE
    ..\..\..\src\boards\mcu\stm32\STM32L1xx_StdPeriph_Driver\src\misc.c 0x00000000   Number         0  misc.o ABSOLUTE
    ..\..\..\src\boards\mcu\stm32\STM32L1xx_StdPeriph_Driver\src\stm32l1xx_adc.c 0x00000000   Number         0  stm32l1xx_adc.o ABSOLUTE
    ..\..\..\src\boards\mcu\stm32\STM32L1xx_StdPeriph_Driver\src\stm32l1xx_dbgmcu.c 0x00000000   Number         0  stm32l1xx_dbgmcu.o ABSOLUTE
    ..\..\..\src\boards\mcu\stm32\STM32L1xx_StdPeriph_Driver\src\stm32l1xx_dma.c 0x00000000   Number         0  stm32l1xx_dma.o ABSOLUTE
    ..\..\..\src\boards\mcu\stm32\STM32L1xx_StdPeriph_Driver\src\stm32l1xx_exti.c 0x00000000   Number         0  stm32l1xx_exti.o ABSOLUTE
    ..\..\..\src\boards\mcu\stm32\STM32L1xx_StdPeriph_Driver\src\stm32l1xx_gpio.c 0x00000000   Number         0  stm32l1xx_gpio.o ABSOLUTE
    ..\..\..\src\boards\mcu\stm32\STM32L1xx_StdPeriph_Driver\src\stm32l1xx_i2c.c 0x00000000   Number         0  stm32l1xx_i2c.o ABSOLUTE
    ..\..\..\src\boards\mcu\stm32\STM32L1xx_StdPeriph_Driver\src\stm32l1xx_pwr.c 0x00000000   Number         0  stm32l1xx_pwr.o ABSOLUTE
    ..\..\..\src\boards\mcu\stm32\STM32L1xx_StdPeriph_Driver\src\stm32l1xx_rcc.c 0x00000000   Number         0  stm32l1xx_rcc.o ABSOLUTE
    ..\..\..\src\boards\mcu\stm32\STM32L1xx_StdPeriph_Driver\src\stm32l1xx_rtc.c 0x00000000   Number         0  stm32l1xx_rtc.o ABSOLUTE
    ..\..\..\src\boards\mcu\stm32\STM32L1xx_StdPeriph_Driver\src\stm32l1xx_spi.c 0x00000000   Number         0  stm32l1xx_spi.o ABSOLUTE
    ..\..\..\src\boards\mcu\stm32\STM32L1xx_StdPeriph_Driver\src\stm32l1xx_syscfg.c 0x00000000   Number         0  stm32l1xx_syscfg.o ABSOLUTE
    ..\..\..\src\boards\mcu\stm32\STM32L1xx_StdPeriph_Driver\src\stm32l1xx_tim.c 0x00000000   Number         0  stm32l1xx_tim.o ABSOLUTE
    ..\..\..\src\boards\mcu\stm32\STM32L1xx_StdPeriph_Driver\src\stm32l1xx_usart.c 0x00000000   Number         0  stm32l1xx_usart.o ABSOLUTE
    ..\..\..\src\boards\mcu\stm32\sysIrqHandlers.c 0x00000000   Number         0  sysirqhandlers.o ABSOLUTE
    ..\..\..\src\boards\mcu\stm32\utilities.c 0x00000000   Number         0  utilities.o ABSOLUTE
    ..\..\..\src\peripherals\gpio-ioe.c      0x00000000   Number         0  gpio-ioe.o ABSOLUTE
    ..\..\..\src\peripherals\mag3110.c       0x00000000   Number         0  mag3110.o ABSOLUTE
    ..\..\..\src\peripherals\mma8451.c       0x00000000   Number         0  mma8451.o ABSOLUTE
    ..\..\..\src\peripherals\mpl3115.c       0x00000000   Number         0  mpl3115.o ABSOLUTE
    ..\..\..\src\peripherals\sx1509.c        0x00000000   Number         0  sx1509.o ABSOLUTE
    ..\..\..\src\peripherals\sx9500.c        0x00000000   Number         0  sx9500.o ABSOLUTE
    ..\..\..\src\radio\sx1272\sx1272.c       0x00000000   Number         0  sx1272.o ABSOLUTE
    ..\..\..\src\system\adc.c                0x00000000   Number         0  adc.o ABSOLUTE
    ..\..\..\src\system\delay.c              0x00000000   Number         0  delay.o ABSOLUTE
    ..\..\..\src\system\fifo.c               0x00000000   Number         0  fifo.o ABSOLUTE
    ..\..\..\src\system\gpio.c               0x00000000   Number         0  gpio.o ABSOLUTE
    ..\..\..\src\system\gps.c                0x00000000   Number         0  gps.o ABSOLUTE
    ..\..\..\src\system\i2c.c                0x00000000   Number         0  i2c.o ABSOLUTE
    ..\..\..\src\system\timer.c              0x00000000   Number         0  timer.o ABSOLUTE
    ..\..\..\src\system\uart.c               0x00000000   Number         0  uart.o ABSOLUTE
    ..\\..\\..\\src\\apps\\ping-pong\\LoRaMote\\main.c 0x00000000   Number         0  main.o ABSOLUTE
    ..\\..\\..\\src\\boards\\LoRaMote\\adc-board.c 0x00000000   Number         0  adc-board.o ABSOLUTE
    ..\\..\\..\\src\\boards\\LoRaMote\\board.c 0x00000000   Number         0  board.o ABSOLUTE
    ..\\..\\..\\src\\boards\\LoRaMote\\cmsis\\system_stm32l1xx.c 0x00000000   Number         0  system_stm32l1xx.o ABSOLUTE
    ..\\..\\..\\src\\boards\\LoRaMote\\gpio-board.c 0x00000000   Number         0  gpio-board.o ABSOLUTE
    ..\\..\\..\\src\\boards\\LoRaMote\\gps-board.c 0x00000000   Number         0  gps-board.o ABSOLUTE
    ..\\..\\..\\src\\boards\\LoRaMote\\i2c-board.c 0x00000000   Number         0  i2c-board.o ABSOLUTE
    ..\\..\\..\\src\\boards\\LoRaMote\\rtc-board.c 0x00000000   Number         0  rtc-board.o ABSOLUTE
    ..\\..\\..\\src\\boards\\LoRaMote\\spi-board.c 0x00000000   Number         0  spi-board.o ABSOLUTE
    ..\\..\\..\\src\\boards\\LoRaMote\\sx1272-board.c 0x00000000   Number         0  sx1272-board.o ABSOLUTE
    ..\\..\\..\\src\\boards\\LoRaMote\\timer-board.c 0x00000000   Number         0  timer-board.o ABSOLUTE
    ..\\..\\..\\src\\boards\\LoRaMote\\uart-board.c 0x00000000   Number         0  uart-board.o ABSOLUTE
    ..\\..\\..\\src\\boards\\mcu\\stm32\\STM32L1xx_StdPeriph_Driver\\src\\misc.c 0x00000000   Number         0  misc.o ABSOLUTE
    ..\\..\\..\\src\\boards\\mcu\\stm32\\STM32L1xx_StdPeriph_Driver\\src\\stm32l1xx_adc.c 0x00000000   Number         0  stm32l1xx_adc.o ABSOLUTE
    ..\\..\\..\\src\\boards\\mcu\\stm32\\STM32L1xx_StdPeriph_Driver\\src\\stm32l1xx_dbgmcu.c 0x00000000   Number         0  stm32l1xx_dbgmcu.o ABSOLUTE
    ..\\..\\..\\src\\boards\\mcu\\stm32\\STM32L1xx_StdPeriph_Driver\\src\\stm32l1xx_dma.c 0x00000000   Number         0  stm32l1xx_dma.o ABSOLUTE
    ..\\..\\..\\src\\boards\\mcu\\stm32\\STM32L1xx_StdPeriph_Driver\\src\\stm32l1xx_exti.c 0x00000000   Number         0  stm32l1xx_exti.o ABSOLUTE
    ..\\..\\..\\src\\boards\\mcu\\stm32\\STM32L1xx_StdPeriph_Driver\\src\\stm32l1xx_gpio.c 0x00000000   Number         0  stm32l1xx_gpio.o ABSOLUTE
    ..\\..\\..\\src\\boards\\mcu\\stm32\\STM32L1xx_StdPeriph_Driver\\src\\stm32l1xx_i2c.c 0x00000000   Number         0  stm32l1xx_i2c.o ABSOLUTE
    ..\\..\\..\\src\\boards\\mcu\\stm32\\STM32L1xx_StdPeriph_Driver\\src\\stm32l1xx_pwr.c 0x00000000   Number         0  stm32l1xx_pwr.o ABSOLUTE
    ..\\..\\..\\src\\boards\\mcu\\stm32\\STM32L1xx_StdPeriph_Driver\\src\\stm32l1xx_rcc.c 0x00000000   Number         0  stm32l1xx_rcc.o ABSOLUTE
    ..\\..\\..\\src\\boards\\mcu\\stm32\\STM32L1xx_StdPeriph_Driver\\src\\stm32l1xx_rtc.c 0x00000000   Number         0  stm32l1xx_rtc.o ABSOLUTE
    ..\\..\\..\\src\\boards\\mcu\\stm32\\STM32L1xx_StdPeriph_Driver\\src\\stm32l1xx_spi.c 0x00000000   Number         0  stm32l1xx_spi.o ABSOLUTE
    ..\\..\\..\\src\\boards\\mcu\\stm32\\STM32L1xx_StdPeriph_Driver\\src\\stm32l1xx_syscfg.c 0x00000000   Number         0  stm32l1xx_syscfg.o ABSOLUTE
    ..\\..\\..\\src\\boards\\mcu\\stm32\\STM32L1xx_StdPeriph_Driver\\src\\stm32l1xx_tim.c 0x00000000   Number         0  stm32l1xx_tim.o ABSOLUTE
    ..\\..\\..\\src\\boards\\mcu\\stm32\\STM32L1xx_StdPeriph_Driver\\src\\stm32l1xx_usart.c 0x00000000   Number         0  stm32l1xx_usart.o ABSOLUTE
    ..\\..\\..\\src\\boards\\mcu\\stm32\\sysIrqHandlers.c 0x00000000   Number         0  sysirqhandlers.o ABSOLUTE
    ..\\..\\..\\src\\boards\\mcu\\stm32\\utilities.c 0x00000000   Number         0  utilities.o ABSOLUTE
    ..\\..\\..\\src\\peripherals\\gpio-ioe.c 0x00000000   Number         0  gpio-ioe.o ABSOLUTE
    ..\\..\\..\\src\\peripherals\\mag3110.c  0x00000000   Number         0  mag3110.o ABSOLUTE
    ..\\..\\..\\src\\peripherals\\mma8451.c  0x00000000   Number         0  mma8451.o ABSOLUTE
    ..\\..\\..\\src\\peripherals\\mpl3115.c  0x00000000   Number         0  mpl3115.o ABSOLUTE
    ..\\..\\..\\src\\peripherals\\sx1509.c   0x00000000   Number         0  sx1509.o ABSOLUTE
    ..\\..\\..\\src\\peripherals\\sx9500.c   0x00000000   Number         0  sx9500.o ABSOLUTE
    ..\\..\\..\\src\\radio\\sx1272\\sx1272.c 0x00000000   Number         0  sx1272.o ABSOLUTE
    ..\\..\\..\\src\\system\\adc.c           0x00000000   Number         0  adc.o ABSOLUTE
    ..\\..\\..\\src\\system\\delay.c         0x00000000   Number         0  delay.o ABSOLUTE
    ..\\..\\..\\src\\system\\gpio.c          0x00000000   Number         0  gpio.o ABSOLUTE
    ..\\..\\..\\src\\system\\gps.c           0x00000000   Number         0  gps.o ABSOLUTE
    ..\\..\\..\\src\\system\\i2c.c           0x00000000   Number         0  i2c.o ABSOLUTE
    ..\\..\\..\\src\\system\\timer.c         0x00000000   Number         0  timer.o ABSOLUTE
    ..\\..\\..\\src\\system\\uart.c          0x00000000   Number         0  uart.o ABSOLUTE
    cdcmple.s                                0x00000000   Number         0  cdcmple.o ABSOLUTE
    cdrcmple.s                               0x00000000   Number         0  cdrcmple.o ABSOLUTE
    dc.s                                     0x00000000   Number         0  dc.o ABSOLUTE
    handlers.s                               0x00000000   Number         0  handlers.o ABSOLUTE
    init.s                                   0x00000000   Number         0  init.o ABSOLUTE
    RESET                                    0x08000000   Section      244  startup_stm32l1xx_md.o(RESET)
    .ARM.Collect$$$$00000000                 0x080000f4   Section        0  entry.o(.ARM.Collect$$$$00000000)
    .ARM.Collect$$$$00000001                 0x080000f4   Section        4  entry2.o(.ARM.Collect$$$$00000001)
    .ARM.Collect$$$$00000004                 0x080000f8   Section        4  entry5.o(.ARM.Collect$$$$00000004)
    .ARM.Collect$$$$00000008                 0x080000fc   Section        0  entry7b.o(.ARM.Collect$$$$00000008)
    .ARM.Collect$$$$0000000A                 0x080000fc   Section        0  entry8b.o(.ARM.Collect$$$$0000000A)
    .ARM.Collect$$$$0000000B                 0x080000fc   Section        8  entry9a.o(.ARM.Collect$$$$0000000B)
    .ARM.Collect$$$$0000000D                 0x08000104   Section        0  entry10a.o(.ARM.Collect$$$$0000000D)
    .ARM.Collect$$$$0000000F                 0x08000104   Section        0  entry11a.o(.ARM.Collect$$$$0000000F)
    .ARM.Collect$$$$00002712                 0x08000104   Section        4  entry2.o(.ARM.Collect$$$$00002712)
    __lit__00000000                          0x08000104   Data           4  entry2.o(.ARM.Collect$$$$00002712)
    .text                                    0x08000108   Section       36  startup_stm32l1xx_md.o(.text)
    .text                                    0x0800012c   Section        0  memcpya.o(.text)
    .text                                    0x08000150   Section        0  memseta.o(.text)
    .text                                    0x08000174   Section        0  strncmp.o(.text)
    .text                                    0x08000192   Section        0  dadd.o(.text)
    .text                                    0x080002e0   Section        0  dmul.o(.text)
    .text                                    0x080003c4   Section        0  ddiv.o(.text)
    .text                                    0x080004a2   Section        0  dscalb.o(.text)
    .text                                    0x080004d0   Section        0  dflti.o(.text)
    .text                                    0x080004f2   Section        0  dfltui.o(.text)
    .text                                    0x0800050c   Section        0  dfltul.o(.text)
    .text                                    0x08000524   Section        0  dfixi.o(.text)
    .text                                    0x08000562   Section        0  dfixui.o(.text)
    .text                                    0x08000594   Section        0  dfixul.o(.text)
    .text                                    0x080005c4   Section       48  cdcmple.o(.text)
    .text                                    0x080005f4   Section       48  cdrcmple.o(.text)
    .text                                    0x08000624   Section        0  llshl.o(.text)
    .text                                    0x08000642   Section        0  llushr.o(.text)
    .text                                    0x08000662   Section        0  llsshr.o(.text)
    .text                                    0x08000686   Section        0  depilogue.o(.text)
    .text                                    0x08000686   Section        0  iusefp.o(.text)
    .text                                    0x08000740   Section        0  drnd.o(.text)
    .text                                    0x080007c8   Section       36  init.o(.text)
    i.ADC_CommonInit                         0x080007ec   Section        0  stm32l1xx_adc.o(i.ADC_CommonInit)
    i.ADC_DeInit                             0x08000800   Section        0  stm32l1xx_adc.o(i.ADC_DeInit)
    i.ADC_DelaySelectionConfig               0x08000824   Section        0  stm32l1xx_adc.o(i.ADC_DelaySelectionConfig)
    i.ADC_Init                               0x08000830   Section        0  stm32l1xx_adc.o(i.ADC_Init)
    i.ADC_StructInit                         0x0800087c   Section        0  stm32l1xx_adc.o(i.ADC_StructInit)
    i.AdcInit                                0x08000894   Section        0  adc.o(i.AdcInit)
    i.AdcMcuFormat                           0x080008c0   Section        0  adc-board.o(i.AdcMcuFormat)
    i.AdcMcuInit                             0x08000998   Section        0  adc-board.o(i.AdcMcuInit)
    i.BlockLowPowerDuringTask                0x080009c0   Section        0  rtc-board.o(i.BlockLowPowerDuringTask)
    i.BoardDeInitMcu                         0x080009d8   Section        0  board.o(i.BoardDeInitMcu)
    i.BoardInitMcu                           0x08000a48   Section        0  board.o(i.BoardInitMcu)
    i.BoardInitPeriph                        0x08000acc   Section        0  board.o(i.BoardInitPeriph)
    i.BoardUnusedIoInit                      0x08000c18   Section        0  board.o(i.BoardUnusedIoInit)
    BoardUnusedIoInit                        0x08000c19   Thumb Code   210  board.o(i.BoardUnusedIoInit)
    i.BusFault_Handler                       0x08000cea   Section        0  sysirqhandlers.o(i.BusFault_Handler)
    i.DBGMCU_Config                          0x08000cec   Section        0  stm32l1xx_dbgmcu.o(i.DBGMCU_Config)
    i.DebugMon_Handler                       0x08000d08   Section        0  sysirqhandlers.o(i.DebugMon_Handler)
    i.DelayMs                                0x08000d0a   Section        0  delay.o(i.DelayMs)
    i.EXTI0_IRQHandler                       0x08000d28   Section        0  gpio-board.o(i.EXTI0_IRQHandler)
    i.EXTI15_10_IRQHandler                   0x08000d58   Section        0  gpio-board.o(i.EXTI15_10_IRQHandler)
    i.EXTI1_IRQHandler                       0x08000e04   Section        0  gpio-board.o(i.EXTI1_IRQHandler)
    i.EXTI2_IRQHandler                       0x08000e34   Section        0  gpio-board.o(i.EXTI2_IRQHandler)
    i.EXTI3_IRQHandler                       0x08000e64   Section        0  gpio-board.o(i.EXTI3_IRQHandler)
    i.EXTI4_IRQHandler                       0x08000e94   Section        0  gpio-board.o(i.EXTI4_IRQHandler)
    i.EXTI9_5_IRQHandler                     0x08000ec4   Section        0  gpio-board.o(i.EXTI9_5_IRQHandler)
    i.EXTI_ClearITPendingBit                 0x08000f4c   Section        0  stm32l1xx_exti.o(i.EXTI_ClearITPendingBit)
    i.EXTI_GetITStatus                       0x08000f58   Section        0  stm32l1xx_exti.o(i.EXTI_GetITStatus)
    i.EXTI_Init                              0x08000f6c   Section        0  stm32l1xx_exti.o(i.EXTI_Init)
    i.FifoInit                               0x08000fe0   Section        0  fifo.o(i.FifoInit)
    i.FifoNext                               0x08000fec   Section        0  fifo.o(i.FifoNext)
    FifoNext                                 0x08000fed   Thumb Code    16  fifo.o(i.FifoNext)
    i.FifoPop                                0x08000ffc   Section        0  fifo.o(i.FifoPop)
    i.FifoPush                               0x0800101a   Section        0  fifo.o(i.FifoPush)
    i.GPIO_Init                              0x08001030   Section        0  stm32l1xx_gpio.o(i.GPIO_Init)
    i.GPIO_PinAFConfig                       0x080010aa   Section        0  stm32l1xx_gpio.o(i.GPIO_PinAFConfig)
    i.GPIO_ReadInputDataBit                  0x080010ca   Section        0  stm32l1xx_gpio.o(i.GPIO_ReadInputDataBit)
    i.GPIO_ResetBits                         0x080010d8   Section        0  stm32l1xx_gpio.o(i.GPIO_ResetBits)
    i.GPIO_SetBits                           0x080010dc   Section        0  stm32l1xx_gpio.o(i.GPIO_SetBits)
    i.GetFskBandwidthRegValue                0x080010e0   Section        0  sx1272.o(i.GetFskBandwidthRegValue)
    GetFskBandwidthRegValue                  0x080010e1   Thumb Code    40  sx1272.o(i.GetFskBandwidthRegValue)
    i.GpioInit                               0x0800110c   Section        0  gpio.o(i.GpioInit)
    i.GpioIoeInit                            0x0800112e   Section        0  gpio-ioe.o(i.GpioIoeInit)
    i.GpioIoeRead                            0x080011da   Section        0  gpio-ioe.o(i.GpioIoeRead)
    i.GpioIoeSetInterrupt                    0x08001214   Section        0  gpio-ioe.o(i.GpioIoeSetInterrupt)
    i.GpioIoeWrite                           0x08001216   Section        0  gpio-ioe.o(i.GpioIoeWrite)
    i.GpioMcuInit                            0x08001268   Section        0  gpio-board.o(i.GpioMcuInit)
    i.GpioMcuRead                            0x080012ec   Section        0  gpio-board.o(i.GpioMcuRead)
    i.GpioMcuSetInterrupt                    0x08001308   Section        0  gpio-board.o(i.GpioMcuSetInterrupt)
    i.GpioMcuWrite                           0x08001400   Section        0  gpio-board.o(i.GpioMcuWrite)
    i.GpioRead                               0x08001426   Section        0  gpio.o(i.GpioRead)
    i.GpioSetInterrupt                       0x0800143a   Section        0  gpio.o(i.GpioSetInterrupt)
    i.GpioWrite                              0x08001454   Section        0  gpio.o(i.GpioWrite)
    i.GpsConvertPositionFromStringToNumerical 0x08001468   Section        0  gps.o(i.GpsConvertPositionFromStringToNumerical)
    i.GpsConvertPositionIntoBinary           0x080016d0   Section        0  gps.o(i.GpsConvertPositionIntoBinary)
    i.GpsFormatGpsData                       0x0800177c   Section        0  gps.o(i.GpsFormatGpsData)
    i.GpsInit                                0x0800178c   Section        0  gps.o(i.GpsInit)
    i.GpsMcuInit                             0x0800179c   Section        0  gps-board.o(i.GpsMcuInit)
    i.GpsMcuIrqNotify                        0x080017fc   Section        0  gps-board.o(i.GpsMcuIrqNotify)
    i.GpsMcuOnPpsSignal                      0x08001854   Section        0  gps-board.o(i.GpsMcuOnPpsSignal)
    i.GpsNmeaChecksum                        0x08001890   Section        0  gps.o(i.GpsNmeaChecksum)
    i.GpsNmeaValidateChecksum                0x080018de   Section        0  gps.o(i.GpsNmeaValidateChecksum)
    GpsNmeaValidateChecksum                  0x080018df   Thumb Code    66  gps.o(i.GpsNmeaValidateChecksum)
    i.GpsParseGpsData                        0x08001920   Section        0  gps.o(i.GpsParseGpsData)
    i.GpsPpsHandler                          0x08001db0   Section        0  gps.o(i.GpsPpsHandler)
    i.I2C_AcknowledgeConfig                  0x08001dd8   Section        0  stm32l1xx_i2c.o(i.I2C_AcknowledgeConfig)
    i.I2C_CheckEvent                         0x08001df0   Section        0  stm32l1xx_i2c.o(i.I2C_CheckEvent)
    i.I2C_Cmd                                0x08001e08   Section        0  stm32l1xx_i2c.o(i.I2C_Cmd)
    i.I2C_DeInit                             0x08001e20   Section        0  stm32l1xx_i2c.o(i.I2C_DeInit)
    i.I2C_GenerateSTART                      0x08001e58   Section        0  stm32l1xx_i2c.o(i.I2C_GenerateSTART)
    i.I2C_GenerateSTOP                       0x08001e70   Section        0  stm32l1xx_i2c.o(i.I2C_GenerateSTOP)
    i.I2C_GetFlagStatus                      0x08001e88   Section        0  stm32l1xx_i2c.o(i.I2C_GetFlagStatus)
    i.I2C_Init                               0x08001ebc   Section        0  stm32l1xx_i2c.o(i.I2C_Init)
    i.I2C_ReceiveData                        0x08001f78   Section        0  stm32l1xx_i2c.o(i.I2C_ReceiveData)
    i.I2C_Send7bitAddress                    0x08001f7e   Section        0  stm32l1xx_i2c.o(i.I2C_Send7bitAddress)
    i.I2C_SendData                           0x08001f90   Section        0  stm32l1xx_i2c.o(i.I2C_SendData)
    i.I2cDeInit                              0x08001f94   Section        0  i2c.o(i.I2cDeInit)
    i.I2cInit                                0x08001fa4   Section        0  i2c.o(i.I2cInit)
    i.I2cMcuDeInit                           0x08001fd8   Section        0  i2c-board.o(i.I2cMcuDeInit)
    i.I2cMcuFormat                           0x08002010   Section        0  i2c-board.o(i.I2cMcuFormat)
    i.I2cMcuInit                             0x080020a0   Section        0  i2c-board.o(i.I2cMcuInit)
    i.I2cMcuReadBuffer                       0x08002104   Section        0  i2c-board.o(i.I2cMcuReadBuffer)
    i.I2cMcuWriteBuffer                      0x08002398   Section        0  i2c-board.o(i.I2cMcuWriteBuffer)
    i.I2cReadBuffer                          0x08002524   Section        0  i2c.o(i.I2cReadBuffer)
    i.I2cResetBus                            0x08002540   Section        0  i2c.o(i.I2cResetBus)
    i.I2cWriteBuffer                         0x08002554   Section        0  i2c.o(i.I2cWriteBuffer)
    i.IsFifoEmpty                            0x080025a0   Section        0  fifo.o(i.IsFifoEmpty)
    i.IsFifoFull                             0x080025b0   Section        0  fifo.o(i.IsFifoFull)
    i.MAG3110Init                            0x080025cc   Section        0  mag3110.o(i.MAG3110Init)
    i.MAG3110Read                            0x08002604   Section        0  mag3110.o(i.MAG3110Read)
    i.MAG3110ReadBuffer                      0x0800260c   Section        0  mag3110.o(i.MAG3110ReadBuffer)
    i.MAG3110Reset                           0x0800262c   Section        0  mag3110.o(i.MAG3110Reset)
    i.MAG3110SetDeviceAddr                   0x08002644   Section        0  mag3110.o(i.MAG3110SetDeviceAddr)
    i.MAG3110Write                           0x08002650   Section        0  mag3110.o(i.MAG3110Write)
    i.MAG3110WriteBuffer                     0x0800265c   Section        0  mag3110.o(i.MAG3110WriteBuffer)
    i.MMA8451Init                            0x0800267c   Section        0  mma8451.o(i.MMA8451Init)
    i.MMA8451Read                            0x080026b4   Section        0  mma8451.o(i.MMA8451Read)
    i.MMA8451ReadBuffer                      0x080026bc   Section        0  mma8451.o(i.MMA8451ReadBuffer)
    i.MMA8451Reset                           0x080026dc   Section        0  mma8451.o(i.MMA8451Reset)
    i.MMA8451SetDeviceAddr                   0x080026f4   Section        0  mma8451.o(i.MMA8451SetDeviceAddr)
    i.MMA8451Write                           0x08002700   Section        0  mma8451.o(i.MMA8451Write)
    i.MMA8451WriteBuffer                     0x0800270c   Section        0  mma8451.o(i.MMA8451WriteBuffer)
    i.MPL3115Init                            0x0800272c   Section        0  mpl3115.o(i.MPL3115Init)
    i.MPL3115Read                            0x080027a8   Section        0  mpl3115.o(i.MPL3115Read)
    i.MPL3115ReadBuffer                      0x080027b0   Section        0  mpl3115.o(i.MPL3115ReadBuffer)
    i.MPL3115Reset                           0x080027d0   Section        0  mpl3115.o(i.MPL3115Reset)
    i.MPL3115SetDeviceAddr                   0x080027e8   Section        0  mpl3115.o(i.MPL3115SetDeviceAddr)
    i.MPL3115SetModeActive                   0x080027f4   Section        0  mpl3115.o(i.MPL3115SetModeActive)
    i.MPL3115Write                           0x08002814   Section        0  mpl3115.o(i.MPL3115Write)
    i.MPL3115WriteBuffer                     0x08002820   Section        0  mpl3115.o(i.MPL3115WriteBuffer)
    i.MemManage_Handler                      0x08002840   Section        0  sysirqhandlers.o(i.MemManage_Handler)
    i.NMI_Handler                            0x08002842   Section        0  sysirqhandlers.o(i.NMI_Handler)
    i.NVIC_Init                              0x08002844   Section        0  misc.o(i.NVIC_Init)
    i.NVIC_PriorityGroupConfig               0x080028ac   Section        0  misc.o(i.NVIC_PriorityGroupConfig)
    i.Nibble2HexChar                         0x080028c0   Section        0  utilities.o(i.Nibble2HexChar)
    i.OnRxDone                               0x080028d8   Section        0  main.o(i.OnRxDone)
    i.OnRxError                              0x08002910   Section        0  main.o(i.OnRxError)
    i.OnRxTimeout                            0x08002928   Section        0  main.o(i.OnRxTimeout)
    i.OnTxDone                               0x08002940   Section        0  main.o(i.OnTxDone)
    i.OnTxTimeout                            0x08002958   Section        0  main.o(i.OnTxTimeout)
    i.PWR_EnterSTOPMode                      0x08002970   Section        0  stm32l1xx_pwr.o(i.PWR_EnterSTOPMode)
    i.PWR_FastWakeUpCmd                      0x080029a4   Section        0  stm32l1xx_pwr.o(i.PWR_FastWakeUpCmd)
    i.PWR_PVDCmd                             0x080029b0   Section        0  stm32l1xx_pwr.o(i.PWR_PVDCmd)
    i.PWR_RTCAccessCmd                       0x080029bc   Section        0  stm32l1xx_pwr.o(i.PWR_RTCAccessCmd)
    i.PWR_UltraLowPowerCmd                   0x080029c8   Section        0  stm32l1xx_pwr.o(i.PWR_UltraLowPowerCmd)
    i.RCC_AHBPeriphClockCmd                  0x080029d4   Section        0  stm32l1xx_rcc.o(i.RCC_AHBPeriphClockCmd)
    i.RCC_APB1PeriphClockCmd                 0x080029f0   Section        0  stm32l1xx_rcc.o(i.RCC_APB1PeriphClockCmd)
    i.RCC_APB1PeriphResetCmd                 0x08002a0c   Section        0  stm32l1xx_rcc.o(i.RCC_APB1PeriphResetCmd)
    i.RCC_APB2PeriphClockCmd                 0x08002a28   Section        0  stm32l1xx_rcc.o(i.RCC_APB2PeriphClockCmd)
    i.RCC_APB2PeriphResetCmd                 0x08002a44   Section        0  stm32l1xx_rcc.o(i.RCC_APB2PeriphResetCmd)
    i.RCC_GetClocksFreq                      0x08002a60   Section        0  stm32l1xx_rcc.o(i.RCC_GetClocksFreq)
    i.RCC_GetFlagStatus                      0x08002b20   Section        0  stm32l1xx_rcc.o(i.RCC_GetFlagStatus)
    i.RCC_GetSYSCLKSource                    0x08002b4c   Section        0  stm32l1xx_rcc.o(i.RCC_GetSYSCLKSource)
    i.RCC_HSEConfig                          0x08002b5c   Section        0  stm32l1xx_rcc.o(i.RCC_HSEConfig)
    i.RCC_HSICmd                             0x08002b6c   Section        0  stm32l1xx_rcc.o(i.RCC_HSICmd)
    i.RCC_LSEConfig                          0x08002b78   Section        0  stm32l1xx_rcc.o(i.RCC_LSEConfig)
    i.RCC_PLLCmd                             0x08002b88   Section        0  stm32l1xx_rcc.o(i.RCC_PLLCmd)
    i.RCC_RTCCLKCmd                          0x08002b94   Section        0  stm32l1xx_rcc.o(i.RCC_RTCCLKCmd)
    i.RCC_RTCCLKConfig                       0x08002ba0   Section        0  stm32l1xx_rcc.o(i.RCC_RTCCLKConfig)
    i.RCC_RTCResetCmd                        0x08002bd4   Section        0  stm32l1xx_rcc.o(i.RCC_RTCResetCmd)
    i.RCC_SYSCLKConfig                       0x08002be0   Section        0  stm32l1xx_rcc.o(i.RCC_SYSCLKConfig)
    i.RTC_AlarmCmd                           0x08002bf4   Section        0  stm32l1xx_rtc.o(i.RTC_AlarmCmd)
    i.RTC_Alarm_IRQHandler                   0x08002c50   Section        0  rtc-board.o(i.RTC_Alarm_IRQHandler)
    i.RTC_Bcd2ToByte                         0x08002c7a   Section        0  stm32l1xx_rtc.o(i.RTC_Bcd2ToByte)
    RTC_Bcd2ToByte                           0x08002c7b   Thumb Code    18  stm32l1xx_rtc.o(i.RTC_Bcd2ToByte)
    i.RTC_ByteToBcd2                         0x08002c8c   Section        0  stm32l1xx_rtc.o(i.RTC_ByteToBcd2)
    RTC_ByteToBcd2                           0x08002c8d   Thumb Code    24  stm32l1xx_rtc.o(i.RTC_ByteToBcd2)
    i.RTC_ClearFlag                          0x08002ca4   Section        0  stm32l1xx_rtc.o(i.RTC_ClearFlag)
    i.RTC_ClearITPendingBit                  0x08002cc0   Section        0  stm32l1xx_rtc.o(i.RTC_ClearITPendingBit)
    i.RTC_DateStructInit                     0x08002cdc   Section        0  stm32l1xx_rtc.o(i.RTC_DateStructInit)
    i.RTC_EnterInitMode                      0x08002cec   Section        0  stm32l1xx_rtc.o(i.RTC_EnterInitMode)
    i.RTC_ExitInitMode                       0x08002d30   Section        0  stm32l1xx_rtc.o(i.RTC_ExitInitMode)
    i.RTC_GetDate                            0x08002d40   Section        0  stm32l1xx_rtc.o(i.RTC_GetDate)
    i.RTC_GetITStatus                        0x08002d88   Section        0  stm32l1xx_rtc.o(i.RTC_GetITStatus)
    i.RTC_GetTime                            0x08002dc8   Section        0  stm32l1xx_rtc.o(i.RTC_GetTime)
    i.RTC_ITConfig                           0x08002e14   Section        0  stm32l1xx_rtc.o(i.RTC_ITConfig)
    i.RTC_Init                               0x08002e58   Section        0  stm32l1xx_rtc.o(i.RTC_Init)
    i.RTC_SetAlarm                           0x08002ea8   Section        0  stm32l1xx_rtc.o(i.RTC_SetAlarm)
    i.RTC_SetDate                            0x08002f64   Section        0  stm32l1xx_rtc.o(i.RTC_SetDate)
    i.RTC_SetTime                            0x08003008   Section        0  stm32l1xx_rtc.o(i.RTC_SetTime)
    i.RTC_TimeStructInit                     0x080030b0   Section        0  stm32l1xx_rtc.o(i.RTC_TimeStructInit)
    i.RTC_WaitForSynchro                     0x080030bc   Section        0  stm32l1xx_rtc.o(i.RTC_WaitForSynchro)
    i.RtcClearStatus                         0x08003108   Section        0  rtc-board.o(i.RtcClearStatus)
    RtcClearStatus                           0x08003109   Thumb Code    32  rtc-board.o(i.RtcClearStatus)
    i.RtcDelayMs                             0x08003128   Section        0  rtc-board.o(i.RtcDelayMs)
    i.RtcEnterLowPowerStopMode               0x08003158   Section        0  rtc-board.o(i.RtcEnterLowPowerStopMode)
    i.RtcGetCalendarValue                    0x08003190   Section        0  rtc-board.o(i.RtcGetCalendarValue)
    RtcGetCalendarValue                      0x08003191   Thumb Code   252  rtc-board.o(i.RtcGetCalendarValue)
    i.RtcGetMinimumTimeout                   0x080032a4   Section        0  rtc-board.o(i.RtcGetMinimumTimeout)
    i.RtcGetTimerElapsedTime                 0x080032ac   Section        0  rtc-board.o(i.RtcGetTimerElapsedTime)
    i.RtcGetTimerValue                       0x080032e8   Section        0  rtc-board.o(i.RtcGetTimerValue)
    i.RtcInit                                0x08003310   Section        0  rtc-board.o(i.RtcInit)
    i.RtcRecoverMcuStatus                    0x0800332c   Section        0  rtc-board.o(i.RtcRecoverMcuStatus)
    i.RtcSetAlarmConfig                      0x08003388   Section        0  rtc-board.o(i.RtcSetAlarmConfig)
    RtcSetAlarmConfig                        0x08003389   Thumb Code   100  rtc-board.o(i.RtcSetAlarmConfig)
    i.RtcSetConfig                           0x080033ec   Section        0  rtc-board.o(i.RtcSetConfig)
    RtcSetConfig                             0x080033ed   Thumb Code   116  rtc-board.o(i.RtcSetConfig)
    i.RtcSetTimeout                          0x08003460   Section        0  rtc-board.o(i.RtcSetTimeout)
    i.RtcStartWakeUpAlarm                    0x080034b0   Section        0  rtc-board.o(i.RtcStartWakeUpAlarm)
    RtcStartWakeUpAlarm                      0x080034b1   Thumb Code   388  rtc-board.o(i.RtcStartWakeUpAlarm)
    i.SPI_Cmd                                0x0800364c   Section        0  stm32l1xx_spi.o(i.SPI_Cmd)
    i.SPI_I2S_DeInit                         0x08003664   Section        0  stm32l1xx_spi.o(i.SPI_I2S_DeInit)
    i.SPI_I2S_GetFlagStatus                  0x080036c8   Section        0  stm32l1xx_spi.o(i.SPI_I2S_GetFlagStatus)
    i.SPI_I2S_ReceiveData                    0x080036d6   Section        0  stm32l1xx_spi.o(i.SPI_I2S_ReceiveData)
    i.SPI_I2S_SendData                       0x080036da   Section        0  stm32l1xx_spi.o(i.SPI_I2S_SendData)
    i.SPI_Init                               0x080036de   Section        0  stm32l1xx_spi.o(i.SPI_Init)
    i.SPI_StructInit                         0x08003716   Section        0  stm32l1xx_spi.o(i.SPI_StructInit)
    i.SX1272AntSwDeInit                      0x08003730   Section        0  sx1272-board.o(i.SX1272AntSwDeInit)
    i.SX1272AntSwInit                        0x0800375c   Section        0  sx1272-board.o(i.SX1272AntSwInit)
    i.SX1272CheckRfFrequency                 0x0800378c   Section        0  sx1272-board.o(i.SX1272CheckRfFrequency)
    i.SX1272GetPaSelect                      0x08003790   Section        0  sx1272-board.o(i.SX1272GetPaSelect)
    i.SX1272GetStatus                        0x08003794   Section        0  sx1272.o(i.SX1272GetStatus)
    i.SX1272GetTimeOnAir                     0x080037a0   Section        0  sx1272.o(i.SX1272GetTimeOnAir)
    i.SX1272Init                             0x080039b4   Section        0  sx1272.o(i.SX1272Init)
    i.SX1272IoDeInit                         0x08003a2c   Section        0  sx1272-board.o(i.SX1272IoDeInit)
    i.SX1272IoInit                           0x08003ab4   Section        0  sx1272-board.o(i.SX1272IoInit)
    i.SX1272IoIrqInit                        0x08003b3c   Section        0  sx1272-board.o(i.SX1272IoIrqInit)
    i.SX1272IsChannelFree                    0x08003b9c   Section        0  sx1272.o(i.SX1272IsChannelFree)
    i.SX1272OnDio0Irq                        0x08003bd4   Section        0  sx1272.o(i.SX1272OnDio0Irq)
    i.SX1272OnDio1Irq                        0x08003e20   Section        0  sx1272.o(i.SX1272OnDio1Irq)
    i.SX1272OnDio2Irq                        0x08003ef8   Section        0  sx1272.o(i.SX1272OnDio2Irq)
    i.SX1272OnDio3Irq                        0x08003fe4   Section        0  sx1272.o(i.SX1272OnDio3Irq)
    i.SX1272OnDio4Irq                        0x08004044   Section        0  sx1272.o(i.SX1272OnDio4Irq)
    i.SX1272OnTimeoutIrq                     0x08004064   Section        0  sx1272.o(i.SX1272OnTimeoutIrq)
    i.SX1272Random                           0x080040f4   Section        0  sx1272.o(i.SX1272Random)
    i.SX1272Read                             0x08004132   Section        0  sx1272.o(i.SX1272Read)
    i.SX1272ReadBuffer                       0x08004144   Section        0  sx1272.o(i.SX1272ReadBuffer)
    i.SX1272ReadFifo                         0x0800418c   Section        0  sx1272.o(i.SX1272ReadFifo)
    i.SX1272ReadRssi                         0x08004196   Section        0  sx1272.o(i.SX1272ReadRssi)
    i.SX1272Reset                            0x080041bc   Section        0  sx1272.o(i.SX1272Reset)
    i.SX1272Send                             0x080041f8   Section        0  sx1272.o(i.SX1272Send)
    i.SX1272SetAntSw                         0x080042f4   Section        0  sx1272-board.o(i.SX1272SetAntSw)
    i.SX1272SetAntSwLowPower                 0x0800433c   Section        0  sx1272-board.o(i.SX1272SetAntSwLowPower)
    i.SX1272SetChannel                       0x08004358   Section        0  sx1272.o(i.SX1272SetChannel)
    i.SX1272SetMaxPayloadLength              0x0800439c   Section        0  sx1272.o(i.SX1272SetMaxPayloadLength)
    i.SX1272SetModem                         0x080043d8   Section        0  sx1272.o(i.SX1272SetModem)
    i.SX1272SetOpMode                        0x08004450   Section        0  sx1272.o(i.SX1272SetOpMode)
    i.SX1272SetRx                            0x0800449c   Section        0  sx1272.o(i.SX1272SetRx)
    i.SX1272SetRxConfig                      0x0800465c   Section        0  sx1272.o(i.SX1272SetRxConfig)
    i.SX1272SetSleep                         0x08004888   Section        0  sx1272.o(i.SX1272SetSleep)
    i.SX1272SetStby                          0x080048b0   Section        0  sx1272.o(i.SX1272SetStby)
    i.SX1272SetTx                            0x080048d8   Section        0  sx1272.o(i.SX1272SetTx)
    i.SX1272SetTxConfig                      0x08004984   Section        0  sx1272.o(i.SX1272SetTxConfig)
    i.SX1272StartCad                         0x08004c50   Section        0  sx1272.o(i.SX1272StartCad)
    i.SX1272Write                            0x08004c90   Section        0  sx1272.o(i.SX1272Write)
    i.SX1272WriteBuffer                      0x08004c9c   Section        0  sx1272.o(i.SX1272WriteBuffer)
    i.SX1272WriteFifo                        0x08004ce4   Section        0  sx1272.o(i.SX1272WriteFifo)
    i.SX1509Init                             0x08004cf0   Section        0  sx1509.o(i.SX1509Init)
    i.SX1509Read                             0x08004d14   Section        0  sx1509.o(i.SX1509Read)
    i.SX1509ReadBuffer                       0x08004d1c   Section        0  sx1509.o(i.SX1509ReadBuffer)
    i.SX1509Reset                            0x08004d3c   Section        0  sx1509.o(i.SX1509Reset)
    i.SX1509SetDeviceAddr                    0x08004d60   Section        0  sx1509.o(i.SX1509SetDeviceAddr)
    i.SX1509Write                            0x08004d6c   Section        0  sx1509.o(i.SX1509Write)
    i.SX1509WriteBuffer                      0x08004d78   Section        0  sx1509.o(i.SX1509WriteBuffer)
    i.SX9500Init                             0x08004d98   Section        0  sx9500.o(i.SX9500Init)
    i.SX9500Read                             0x08004dd0   Section        0  sx9500.o(i.SX9500Read)
    i.SX9500ReadBuffer                       0x08004dd8   Section        0  sx9500.o(i.SX9500ReadBuffer)
    i.SX9500Reset                            0x08004df8   Section        0  sx9500.o(i.SX9500Reset)
    i.SX9500SetDeviceAddr                    0x08004e10   Section        0  sx9500.o(i.SX9500SetDeviceAddr)
    i.SX9500Write                            0x08004e1c   Section        0  sx9500.o(i.SX9500Write)
    i.SX9500WriteBuffer                      0x08004e28   Section        0  sx9500.o(i.SX9500WriteBuffer)
    i.SYSCFG_EXTILineConfig                  0x08004e48   Section        0  stm32l1xx_syscfg.o(i.SYSCFG_EXTILineConfig)
    i.SetSysClock                            0x08004e70   Section        0  system_stm32l1xx.o(i.SetSysClock)
    SetSysClock                              0x08004e71   Thumb Code   190  system_stm32l1xx.o(i.SetSysClock)
    i.SpiDeInit                              0x08004f3c   Section        0  spi-board.o(i.SpiDeInit)
    i.SpiFormat                              0x08004fa4   Section        0  spi-board.o(i.SpiFormat)
    i.SpiFrequency                           0x08005020   Section        0  spi-board.o(i.SpiFrequency)
    i.SpiInOut                               0x08005090   Section        0  spi-board.o(i.SpiInOut)
    i.SpiInit                                0x080050cc   Section        0  spi-board.o(i.SpiInit)
    i.SystemInit                             0x080051c4   Section        0  system_stm32l1xx.o(i.SystemInit)
    i.TIM2_IRQHandler                        0x08005218   Section        0  timer-board.o(i.TIM2_IRQHandler)
    i.TIM3_IRQHandler                        0x08005254   Section        0  timer-board.o(i.TIM3_IRQHandler)
    i.TIM_ClearITPendingBit                  0x0800527c   Section        0  stm32l1xx_tim.o(i.TIM_ClearITPendingBit)
    i.TIM_Cmd                                0x08005282   Section        0  stm32l1xx_tim.o(i.TIM_Cmd)
    i.TIM_GetITStatus                        0x0800529a   Section        0  stm32l1xx_tim.o(i.TIM_GetITStatus)
    i.TIM_ITConfig                           0x080052b2   Section        0  stm32l1xx_tim.o(i.TIM_ITConfig)
    i.TIM_TimeBaseInit                       0x080052c8   Section        0  stm32l1xx_tim.o(i.TIM_TimeBaseInit)
    i.TimerExists                            0x08005324   Section        0  timer.o(i.TimerExists)
    TimerExists                              0x08005325   Thumb Code    24  timer.o(i.TimerExists)
    i.TimerGetLowPowerEnable                 0x08005340   Section        0  timer.o(i.TimerGetLowPowerEnable)
    i.TimerGetValue                          0x0800534c   Section        0  timer.o(i.TimerGetValue)
    i.TimerHwDelayMs                         0x08005368   Section        0  timer-board.o(i.TimerHwDelayMs)
    i.TimerHwEnterLowPowerStopMode           0x08005382   Section        0  timer-board.o(i.TimerHwEnterLowPowerStopMode)
    i.TimerHwGetDelayValue                   0x08005384   Section        0  timer-board.o(i.TimerHwGetDelayValue)
    i.TimerHwGetElapsedTime                  0x08005394   Section        0  timer-board.o(i.TimerHwGetElapsedTime)
    i.TimerHwGetMinimumTimeout               0x080053c4   Section        0  timer-board.o(i.TimerHwGetMinimumTimeout)
    i.TimerHwGetTimerValue                   0x080053c8   Section        0  timer-board.o(i.TimerHwGetTimerValue)
    i.TimerHwInit                            0x080053d8   Section        0  timer-board.o(i.TimerHwInit)
    i.TimerHwStart                           0x080054a4   Section        0  timer-board.o(i.TimerHwStart)
    i.TimerIncrementDelayCounter             0x080054dc   Section        0  timer-board.o(i.TimerIncrementDelayCounter)
    i.TimerIncrementTickCounter              0x080054f0   Section        0  timer-board.o(i.TimerIncrementTickCounter)
    i.TimerInit                              0x0800550c   Section        0  timer.o(i.TimerInit)
    i.TimerInsertNewHeadTimer                0x0800551c   Section        0  timer.o(i.TimerInsertNewHeadTimer)
    TimerInsertNewHeadTimer                  0x0800551d   Thumb Code    34  timer.o(i.TimerInsertNewHeadTimer)
    i.TimerInsertTimer                       0x08005544   Section        0  timer.o(i.TimerInsertTimer)
    TimerInsertTimer                         0x08005545   Thumb Code    88  timer.o(i.TimerInsertTimer)
    i.TimerIrqHandler                        0x080055a0   Section        0  timer.o(i.TimerIrqHandler)
    i.TimerLowPowerHandler                   0x080055f4   Section        0  timer.o(i.TimerLowPowerHandler)
    i.TimerSetLowPowerEnable                 0x08005624   Section        0  timer.o(i.TimerSetLowPowerEnable)
    i.TimerSetTimeout                        0x08005630   Section        0  timer.o(i.TimerSetTimeout)
    TimerSetTimeout                          0x08005631   Thumb Code    22  timer.o(i.TimerSetTimeout)
    i.TimerSetValue                          0x0800564c   Section        0  timer.o(i.TimerSetValue)
    i.TimerStart                             0x08005678   Section        0  timer.o(i.TimerStart)
    i.TimerStop                              0x080056dc   Section        0  timer.o(i.TimerStop)
    i.USART1_IRQHandler                      0x0800576c   Section        0  uart-board.o(i.USART1_IRQHandler)
    i.USART_Cmd                              0x08005808   Section        0  stm32l1xx_usart.o(i.USART_Cmd)
    i.USART_DeInit                           0x08005820   Section        0  stm32l1xx_usart.o(i.USART_DeInit)
    i.USART_GetITStatus                      0x080058c4   Section        0  stm32l1xx_usart.o(i.USART_GetITStatus)
    i.USART_ITConfig                         0x08005904   Section        0  stm32l1xx_usart.o(i.USART_ITConfig)
    i.USART_Init                             0x0800593c   Section        0  stm32l1xx_usart.o(i.USART_Init)
    i.USART_ReceiveData                      0x080059f0   Section        0  stm32l1xx_usart.o(i.USART_ReceiveData)
    i.USART_SendData                         0x080059f8   Section        0  stm32l1xx_usart.o(i.USART_SendData)
    i.UartConfig                             0x08005a00   Section        0  uart.o(i.UartConfig)
    i.UartDeInit                             0x08005a22   Section        0  uart.o(i.UartDeInit)
    i.UartGetChar                            0x08005a32   Section        0  uart.o(i.UartGetChar)
    i.UartInit                               0x08005a40   Section        0  uart.o(i.UartInit)
    i.UartMcuConfig                          0x08005a5c   Section        0  uart-board.o(i.UartMcuConfig)
    i.UartMcuDeInit                          0x08005b90   Section        0  uart-board.o(i.UartMcuDeInit)
    i.UartMcuGetChar                         0x08005bc8   Section        0  uart-board.o(i.UartMcuGetChar)
    i.UartMcuInit                            0x08005bec   Section        0  uart-board.o(i.UartMcuInit)
    i.UsageFault_Handler                     0x08005c50   Section        0  sysirqhandlers.o(i.UsageFault_Handler)
    i.__scatterload_copy                     0x08005c52   Section       14  handlers.o(i.__scatterload_copy)
    i.__scatterload_null                     0x08005c60   Section        2  handlers.o(i.__scatterload_null)
    i.__scatterload_zeroinit                 0x08005c62   Section       14  handlers.o(i.__scatterload_zeroinit)
    i.ceil                                   0x08005c70   Section        0  ceil.o(i.ceil)
    i.floor                                  0x08005d4c   Section        0  floor.o(i.floor)
    i.main                                   0x08005e28   Section        0  main.o(i.main)
    i.memcpy1                                0x08006098   Section        0  utilities.o(i.memcpy1)
    i.round                                  0x080060ac   Section        0  round.o(i.round)
    .constdata                               0x08006140   Section       16  main.o(.constdata)
    .constdata                               0x08006150   Section       24  rtc-board.o(.constdata)
    DaysInMonth                              0x08006150   Data          12  rtc-board.o(.constdata)
    DaysInMonthLeapYear                      0x0800615c   Data          12  rtc-board.o(.constdata)
    .constdata                               0x08006168   Section       84  sx1272-board.o(.constdata)
    .constdata                               0x080061bc   Section      224  sx1272.o(.constdata)
    .constdata                               0x0800629c   Section       12  gps.o(.constdata)
    .data                                    0x20000000   Section        6  main.o(.data)
    .data                                    0x20000006   Section        1  board.o(.data)
    McuInitialized                           0x20000006   Data           1  board.o(.data)
    .data                                    0x20000007   Section        1  gps-board.o(.data)
    .data                                    0x20000008   Section        1  i2c-board.o(.data)
    .data                                    0x20000010   Section       16  rtc-board.o(.data)
    RtcInitalized                            0x20000010   Data           1  rtc-board.o(.data)
    RtcTimerEventAllowsLowPower              0x20000011   Data           1  rtc-board.o(.data)
    LowPowerDisableDuringTask                0x20000012   Data           1  rtc-board.o(.data)
    PreviousYear                             0x20000013   Data           1  rtc-board.o(.data)
    Century                                  0x20000014   Data           1  rtc-board.o(.data)
    RtcTimerContext                          0x20000018   Data           8  rtc-board.o(.data)
    .data                                    0x20000020   Section        1  sx1272-board.o(.data)
    RadioIsActive                            0x20000020   Data           1  sx1272-board.o(.data)
    .data                                    0x20000028   Section       32  timer-board.o(.data)
    TimerTickCounterContext                  0x20000038   Data           8  timer-board.o(.data)
    .data                                    0x20000048   Section       29  system_stm32l1xx.o(.data)
    .data                                    0x20000065   Section       25  stm32l1xx_rcc.o(.data)
    PLLMulTable                              0x20000065   Data           9  stm32l1xx_rcc.o(.data)
    APBAHBPrescTable                         0x2000006e   Data          16  stm32l1xx_rcc.o(.data)
    .data                                    0x2000007e   Section        2  mag3110.o(.data)
    I2cDeviceAddr                            0x2000007e   Data           1  mag3110.o(.data)
    MAG3110Initialized                       0x2000007f   Data           1  mag3110.o(.data)
    .data                                    0x20000080   Section        2  mma8451.o(.data)
    I2cDeviceAddr                            0x20000080   Data           1  mma8451.o(.data)
    MMA8451Initialized                       0x20000081   Data           1  mma8451.o(.data)
    .data                                    0x20000084   Section       16  mpl3115.o(.data)
    I2cDeviceAddr                            0x20000084   Data           1  mpl3115.o(.data)
    MPL3115Initialized                       0x20000085   Data           1  mpl3115.o(.data)
    .data                                    0x20000094   Section        2  sx1509.o(.data)
    I2cDeviceAddr                            0x20000094   Data           1  sx1509.o(.data)
    SX1509Initialized                        0x20000095   Data           1  sx1509.o(.data)
    .data                                    0x20000096   Section        2  sx9500.o(.data)
    I2cDeviceAddr                            0x20000096   Data           1  sx9500.o(.data)
    SX9500Initialized                        0x20000097   Data           1  sx9500.o(.data)
    .data                                    0x20000098   Section       32  sx1272.o(.data)
    opModePrev                               0x20000098   Data           1  sx1272.o(.data)
    RadioEvents                              0x2000009c   Data           4  sx1272.o(.data)
    .data                                    0x200000b8   Section        1  adc.o(.data)
    AdcInitialized                           0x200000b8   Data           1  adc.o(.data)
    .data                                    0x200000c0   Section       32  gps.o(.data)
    Altitude                                 0x200000c2   Data           2  gps.o(.data)
    LatitudeBinary                           0x200000c4   Data           4  gps.o(.data)
    LongitudeBinary                          0x200000c8   Data           4  gps.o(.data)
    PpsCnt                                   0x200000cc   Data           4  gps.o(.data)
    Latitude                                 0x200000d0   Data           8  gps.o(.data)
    Longitude                                0x200000d8   Data           8  gps.o(.data)
    .data                                    0x200000e0   Section        1  i2c.o(.data)
    I2cInitialized                           0x200000e0   Data           1  i2c.o(.data)
    .data                                    0x200000e4   Section        8  timer.o(.data)
    LowPowerModeEnable                       0x200000e4   Data           1  timer.o(.data)
    TimerListHead                            0x200000e8   Data           4  timer.o(.data)
    .bss                                     0x200000ec   Section       92  main.o(.bss)
    RadioEvents                              0x2000012c   Data          28  main.o(.bss)
    .bss                                     0x20000148   Section      224  board.o(.bss)
    .bss                                     0x20000228   Section       12  board.o(.bss)
    .bss                                     0x20000234   Section       56  board.o(.bss)
    .bss                                     0x2000026c   Section       64  gpio-board.o(.bss)
    GpioIrq                                  0x2000026c   Data          64  gpio-board.o(.bss)
    .bss                                     0x200002ac   Section      256  gps-board.o(.bss)
    .bss                                     0x200003ac   Section       18  spi-board.o(.bss)
    .bss                                     0x200003c0   Section       24  sx1272-board.o(.bss)
    .bss                                     0x200003d8   Section      548  sx1272.o(.bss)
    RxTxBuffer                               0x200003d8   Data         256  sx1272.o(.bss)
    .bss                                     0x200005fc   Section       99  gps.o(.bss)
    STACK                                    0x20000660   Section     1024  startup_stm32l1xx_md.o(STACK)

    Global Symbols

    Symbol Name                              Value     Ov Type        Size  Object(Section)

    BuildAttributes$$THM_ISAv4$P$D$K$B$S$PE$A:L22UL41UL21$X:L11$S22US41US21$IEEE1$IW$USESV6$~STKCKD$USESV7$~SHL$OTIME$ROPI$IEEEJ$EBA8$MICROLIB$REQ8$PRES8$EABIv2 0x00000000   Number         0  anon$$obj.o ABSOLUTE
    __ARM_use_no_argv                        0x00000000   Number         0  main.o ABSOLUTE
    __cpp_initialize__aeabi_                  - Undefined Weak Reference
    __cxa_finalize                            - Undefined Weak Reference
    __decompress                              - Undefined Weak Reference
    _clock_init                               - Undefined Weak Reference
    _microlib_exit                            - Undefined Weak Reference
    __Vectors_Size                           0x000000f4   Number         0  startup_stm32l1xx_md.o ABSOLUTE
    __Vectors                                0x08000000   Data           4  startup_stm32l1xx_md.o(RESET)
    __Vectors_End                            0x080000f4   Data           0  startup_stm32l1xx_md.o(RESET)
    __main                                   0x080000f5   Thumb Code     0  entry.o(.ARM.Collect$$$$00000000)
    _main_stk                                0x080000f5   Thumb Code     0  entry2.o(.ARM.Collect$$$$00000001)
    _main_scatterload                        0x080000f9   Thumb Code     0  entry5.o(.ARM.Collect$$$$00000004)
    __main_after_scatterload                 0x080000fd   Thumb Code     0  entry5.o(.ARM.Collect$$$$00000004)
    _main_clock                              0x080000fd   Thumb Code     0  entry7b.o(.ARM.Collect$$$$00000008)
    _main_cpp_init                           0x080000fd   Thumb Code     0  entry8b.o(.ARM.Collect$$$$0000000A)
    _main_init                               0x080000fd   Thumb Code     0  entry9a.o(.ARM.Collect$$$$0000000B)
    __rt_final_cpp                           0x08000105   Thumb Code     0  entry10a.o(.ARM.Collect$$$$0000000D)
    __rt_final_exit                          0x08000105   Thumb Code     0  entry11a.o(.ARM.Collect$$$$0000000F)
    Reset_Handler                            0x08000109   Thumb Code     8  startup_stm32l1xx_md.o(.text)
    HardFault_Handler                        0x08000113   Thumb Code     2  startup_stm32l1xx_md.o(.text)
    SVC_Handler                              0x0800011b   Thumb Code     2  startup_stm32l1xx_md.o(.text)
    PendSV_Handler                           0x0800011f   Thumb Code     2  startup_stm32l1xx_md.o(.text)
    SysTick_Handler                          0x08000121   Thumb Code     2  startup_stm32l1xx_md.o(.text)
    ADC1_IRQHandler                          0x08000123   Thumb Code     0  startup_stm32l1xx_md.o(.text)
    COMP_IRQHandler                          0x08000123   Thumb Code     0  startup_stm32l1xx_md.o(.text)
    DAC_IRQHandler                           0x08000123   Thumb Code     0  startup_stm32l1xx_md.o(.text)
    DMA1_Channel1_IRQHandler                 0x08000123   Thumb Code     0  startup_stm32l1xx_md.o(.text)
    DMA1_Channel2_IRQHandler                 0x08000123   Thumb Code     0  startup_stm32l1xx_md.o(.text)
    DMA1_Channel3_IRQHandler                 0x08000123   Thumb Code     0  startup_stm32l1xx_md.o(.text)
    DMA1_Channel4_IRQHandler                 0x08000123   Thumb Code     0  startup_stm32l1xx_md.o(.text)
    DMA1_Channel5_IRQHandler                 0x08000123   Thumb Code     0  startup_stm32l1xx_md.o(.text)
    DMA1_Channel6_IRQHandler                 0x08000123   Thumb Code     0  startup_stm32l1xx_md.o(.text)
    DMA1_Channel7_IRQHandler                 0x08000123   Thumb Code     0  startup_stm32l1xx_md.o(.text)
    FLASH_IRQHandler                         0x08000123   Thumb Code     0  startup_stm32l1xx_md.o(.text)
    I2C1_ER_IRQHandler                       0x08000123   Thumb Code     0  startup_stm32l1xx_md.o(.text)
    I2C1_EV_IRQHandler                       0x08000123   Thumb Code     0  startup_stm32l1xx_md.o(.text)
    I2C2_ER_IRQHandler                       0x08000123   Thumb Code     0  startup_stm32l1xx_md.o(.text)
    I2C2_EV_IRQHandler                       0x08000123   Thumb Code     0  startup_stm32l1xx_md.o(.text)
    LCD_IRQHandler                           0x08000123   Thumb Code     0  startup_stm32l1xx_md.o(.text)
    PVD_IRQHandler                           0x08000123   Thumb Code     0  startup_stm32l1xx_md.o(.text)
    RCC_IRQHandler                           0x08000123   Thumb Code     0  startup_stm32l1xx_md.o(.text)
    RTC_WKUP_IRQHandler                      0x08000123   Thumb Code     0  startup_stm32l1xx_md.o(.text)
    SPI1_IRQHandler                          0x08000123   Thumb Code     0  startup_stm32l1xx_md.o(.text)
    SPI2_IRQHandler                          0x08000123   Thumb Code     0  startup_stm32l1xx_md.o(.text)
    TAMPER_STAMP_IRQHandler                  0x08000123   Thumb Code     0  startup_stm32l1xx_md.o(.text)
    TIM10_IRQHandler                         0x08000123   Thumb Code     0  startup_stm32l1xx_md.o(.text)
    TIM11_IRQHandler                         0x08000123   Thumb Code     0  startup_stm32l1xx_md.o(.text)
    TIM4_IRQHandler                          0x08000123   Thumb Code     0  startup_stm32l1xx_md.o(.text)
    TIM6_IRQHandler                          0x08000123   Thumb Code     0  startup_stm32l1xx_md.o(.text)
    TIM7_IRQHandler                          0x08000123   Thumb Code     0  startup_stm32l1xx_md.o(.text)
    TIM9_IRQHandler                          0x08000123   Thumb Code     0  startup_stm32l1xx_md.o(.text)
    USART2_IRQHandler                        0x08000123   Thumb Code     0  startup_stm32l1xx_md.o(.text)
    USART3_IRQHandler                        0x08000123   Thumb Code     0  startup_stm32l1xx_md.o(.text)
    USB_FS_WKUP_IRQHandler                   0x08000123   Thumb Code     0  startup_stm32l1xx_md.o(.text)
    USB_HP_IRQHandler                        0x08000123   Thumb Code     0  startup_stm32l1xx_md.o(.text)
    USB_LP_IRQHandler                        0x08000123   Thumb Code     0  startup_stm32l1xx_md.o(.text)
    WWDG_IRQHandler                          0x08000123   Thumb Code     0  startup_stm32l1xx_md.o(.text)
    __aeabi_memcpy                           0x0800012d   Thumb Code    36  memcpya.o(.text)
    __aeabi_memcpy4                          0x0800012d   Thumb Code     0  memcpya.o(.text)
    __aeabi_memcpy8                          0x0800012d   Thumb Code     0  memcpya.o(.text)
    __aeabi_memset                           0x08000151   Thumb Code    14  memseta.o(.text)
    __aeabi_memset4                          0x08000151   Thumb Code     0  memseta.o(.text)
    __aeabi_memset8                          0x08000151   Thumb Code     0  memseta.o(.text)
    __aeabi_memclr                           0x0800015f   Thumb Code     4  memseta.o(.text)
    __aeabi_memclr4                          0x0800015f   Thumb Code     0  memseta.o(.text)
    __aeabi_memclr8                          0x0800015f   Thumb Code     0  memseta.o(.text)
    _memset$wrapper                          0x08000163   Thumb Code    18  memseta.o(.text)
    strncmp                                  0x08000175   Thumb Code    30  strncmp.o(.text)
    __aeabi_dadd                             0x08000193   Thumb Code   322  dadd.o(.text)
    __aeabi_dsub                             0x080002d5   Thumb Code     6  dadd.o(.text)
    __aeabi_drsub                            0x080002db   Thumb Code     6  dadd.o(.text)
    __aeabi_dmul                             0x080002e1   Thumb Code   228  dmul.o(.text)
    __aeabi_ddiv                             0x080003c5   Thumb Code   222  ddiv.o(.text)
    __ARM_scalbn                             0x080004a3   Thumb Code    46  dscalb.o(.text)
    scalbn                                   0x080004a3   Thumb Code     0  dscalb.o(.text)
    __aeabi_i2d                              0x080004d1   Thumb Code    34  dflti.o(.text)
    __aeabi_ui2d                             0x080004f3   Thumb Code    26  dfltui.o(.text)
    __aeabi_ul2d                             0x0800050d   Thumb Code    24  dfltul.o(.text)
    __aeabi_d2iz                             0x08000525   Thumb Code    62  dfixi.o(.text)
    __aeabi_d2uiz                            0x08000563   Thumb Code    50  dfixui.o(.text)
    __aeabi_d2ulz                            0x08000595   Thumb Code    48  dfixul.o(.text)
    __aeabi_cdcmpeq                          0x080005c5   Thumb Code     0  cdcmple.o(.text)
    __aeabi_cdcmple                          0x080005c5   Thumb Code    48  cdcmple.o(.text)
    __aeabi_cdrcmple                         0x080005f5   Thumb Code    48  cdrcmple.o(.text)
    __aeabi_llsl                             0x08000625   Thumb Code    30  llshl.o(.text)
    _ll_shift_l                              0x08000625   Thumb Code     0  llshl.o(.text)
    __aeabi_llsr                             0x08000643   Thumb Code    32  llushr.o(.text)
    _ll_ushift_r                             0x08000643   Thumb Code     0  llushr.o(.text)
    __aeabi_lasr                             0x08000663   Thumb Code    36  llsshr.o(.text)
    _ll_sshift_r                             0x08000663   Thumb Code     0  llsshr.o(.text)
    __I$use$fp                               0x08000687   Thumb Code     0  iusefp.o(.text)
    _double_round                            0x08000687   Thumb Code    30  depilogue.o(.text)
    _double_epilogue                         0x080006a5   Thumb Code   156  depilogue.o(.text)
    _drnd                                    0x08000741   Thumb Code   132  drnd.o(.text)
    __scatterload                            0x080007c9   Thumb Code    28  init.o(.text)
    __scatterload_rt2                        0x080007c9   Thumb Code     0  init.o(.text)
    ADC_CommonInit                           0x080007ed   Thumb Code    16  stm32l1xx_adc.o(i.ADC_CommonInit)
    ADC_DeInit                               0x08000801   Thumb Code    32  stm32l1xx_adc.o(i.ADC_DeInit)
    ADC_DelaySelectionConfig                 0x08000825   Thumb Code    12  stm32l1xx_adc.o(i.ADC_DelaySelectionConfig)
    ADC_Init                                 0x08000831   Thumb Code    66  stm32l1xx_adc.o(i.ADC_Init)
    ADC_StructInit                           0x0800087d   Thumb Code    24  stm32l1xx_adc.o(i.ADC_StructInit)
    AdcInit                                  0x08000895   Thumb Code    38  adc.o(i.AdcInit)
    AdcMcuFormat                             0x080008c1   Thumb Code   212  adc-board.o(i.AdcMcuFormat)
    AdcMcuInit                               0x08000999   Thumb Code    34  adc-board.o(i.AdcMcuInit)
    BlockLowPowerDuringTask                  0x080009c1   Thumb Code    18  rtc-board.o(i.BlockLowPowerDuringTask)
    BoardDeInitMcu                           0x080009d9   Thumb Code    98  board.o(i.BoardDeInitMcu)
    BoardInitMcu                             0x08000a49   Thumb Code   114  board.o(i.BoardInitMcu)
    BoardInitPeriph                          0x08000acd   Thumb Code   328  board.o(i.BoardInitPeriph)
    BusFault_Handler                         0x08000ceb   Thumb Code     2  sysirqhandlers.o(i.BusFault_Handler)
    DBGMCU_Config                            0x08000ced   Thumb Code    22  stm32l1xx_dbgmcu.o(i.DBGMCU_Config)
    DebugMon_Handler                         0x08000d09   Thumb Code     2  sysirqhandlers.o(i.DebugMon_Handler)
    DelayMs                                  0x08000d0b   Thumb Code    30  delay.o(i.DelayMs)
    EXTI0_IRQHandler                         0x08000d29   Thumb Code    42  gpio-board.o(i.EXTI0_IRQHandler)
    EXTI15_10_IRQHandler                     0x08000d59   Thumb Code   166  gpio-board.o(i.EXTI15_10_IRQHandler)
    EXTI1_IRQHandler                         0x08000e05   Thumb Code    42  gpio-board.o(i.EXTI1_IRQHandler)
    EXTI2_IRQHandler                         0x08000e35   Thumb Code    42  gpio-board.o(i.EXTI2_IRQHandler)
    EXTI3_IRQHandler                         0x08000e65   Thumb Code    42  gpio-board.o(i.EXTI3_IRQHandler)
    EXTI4_IRQHandler                         0x08000e95   Thumb Code    42  gpio-board.o(i.EXTI4_IRQHandler)
    EXTI9_5_IRQHandler                       0x08000ec5   Thumb Code   130  gpio-board.o(i.EXTI9_5_IRQHandler)
    EXTI_ClearITPendingBit                   0x08000f4d   Thumb Code     6  stm32l1xx_exti.o(i.EXTI_ClearITPendingBit)
    EXTI_GetITStatus                         0x08000f59   Thumb Code    16  stm32l1xx_exti.o(i.EXTI_GetITStatus)
    EXTI_Init                                0x08000f6d   Thumb Code   110  stm32l1xx_exti.o(i.EXTI_Init)
    FifoInit                                 0x08000fe1   Thumb Code    12  fifo.o(i.FifoInit)
    FifoPop                                  0x08000ffd   Thumb Code    30  fifo.o(i.FifoPop)
    FifoPush                                 0x0800101b   Thumb Code    22  fifo.o(i.FifoPush)
    GPIO_Init                                0x08001031   Thumb Code   122  stm32l1xx_gpio.o(i.GPIO_Init)
    GPIO_PinAFConfig                         0x080010ab   Thumb Code    32  stm32l1xx_gpio.o(i.GPIO_PinAFConfig)
    GPIO_ReadInputDataBit                    0x080010cb   Thumb Code    14  stm32l1xx_gpio.o(i.GPIO_ReadInputDataBit)
    GPIO_ResetBits                           0x080010d9   Thumb Code     4  stm32l1xx_gpio.o(i.GPIO_ResetBits)
    GPIO_SetBits                             0x080010dd   Thumb Code     4  stm32l1xx_gpio.o(i.GPIO_SetBits)
    GpioInit                                 0x0800110d   Thumb Code    34  gpio.o(i.GpioInit)
    GpioIoeInit                              0x0800112f   Thumb Code   172  gpio-ioe.o(i.GpioIoeInit)
    GpioIoeRead                              0x080011db   Thumb Code    58  gpio-ioe.o(i.GpioIoeRead)
    GpioIoeSetInterrupt                      0x08001215   Thumb Code     2  gpio-ioe.o(i.GpioIoeSetInterrupt)
    GpioIoeWrite                             0x08001217   Thumb Code    80  gpio-ioe.o(i.GpioIoeWrite)
    GpioMcuInit                              0x08001269   Thumb Code   124  gpio-board.o(i.GpioMcuInit)
    GpioMcuRead                              0x080012ed   Thumb Code    26  gpio-board.o(i.GpioMcuRead)
    GpioMcuSetInterrupt                      0x08001309   Thumb Code   242  gpio-board.o(i.GpioMcuSetInterrupt)
    GpioMcuWrite                             0x08001401   Thumb Code    38  gpio-board.o(i.GpioMcuWrite)
    GpioRead                                 0x08001427   Thumb Code    20  gpio.o(i.GpioRead)
    GpioSetInterrupt                         0x0800143b   Thumb Code    26  gpio.o(i.GpioSetInterrupt)
    GpioWrite                                0x08001455   Thumb Code    20  gpio.o(i.GpioWrite)
    GpsConvertPositionFromStringToNumerical  0x08001469   Thumb Code   584  gps.o(i.GpsConvertPositionFromStringToNumerical)
    GpsConvertPositionIntoBinary             0x080016d1   Thumb Code   154  gps.o(i.GpsConvertPositionIntoBinary)
    GpsFormatGpsData                         0x0800177d   Thumb Code    14  gps.o(i.GpsFormatGpsData)
    GpsInit                                  0x0800178d   Thumb Code    10  gps.o(i.GpsInit)
    GpsMcuInit                               0x0800179d   Thumb Code    68  gps-board.o(i.GpsMcuInit)
    GpsMcuIrqNotify                          0x080017fd   Thumb Code    76  gps-board.o(i.GpsMcuIrqNotify)
    GpsMcuOnPpsSignal                        0x08001855   Thumb Code    54  gps-board.o(i.GpsMcuOnPpsSignal)
    GpsNmeaChecksum                          0x08001891   Thumb Code    78  gps.o(i.GpsNmeaChecksum)
    GpsParseGpsData                          0x08001921   Thumb Code  1168  gps.o(i.GpsParseGpsData)
    GpsPpsHandler                            0x08001db1   Thumb Code    36  gps.o(i.GpsPpsHandler)
    I2C_AcknowledgeConfig                    0x08001dd9   Thumb Code    24  stm32l1xx_i2c.o(i.I2C_AcknowledgeConfig)
    I2C_CheckEvent                           0x08001df1   Thumb Code    24  stm32l1xx_i2c.o(i.I2C_CheckEvent)
    I2C_Cmd                                  0x08001e09   Thumb Code    24  stm32l1xx_i2c.o(i.I2C_Cmd)
    I2C_DeInit                               0x08001e21   Thumb Code    52  stm32l1xx_i2c.o(i.I2C_DeInit)
    I2C_GenerateSTART                        0x08001e59   Thumb Code    24  stm32l1xx_i2c.o(i.I2C_GenerateSTART)
    I2C_GenerateSTOP                         0x08001e71   Thumb Code    24  stm32l1xx_i2c.o(i.I2C_GenerateSTOP)
    I2C_GetFlagStatus                        0x08001e89   Thumb Code    50  stm32l1xx_i2c.o(i.I2C_GetFlagStatus)
    I2C_Init                                 0x08001ebd   Thumb Code   178  stm32l1xx_i2c.o(i.I2C_Init)
    I2C_ReceiveData                          0x08001f79   Thumb Code     6  stm32l1xx_i2c.o(i.I2C_ReceiveData)
    I2C_Send7bitAddress                      0x08001f7f   Thumb Code    18  stm32l1xx_i2c.o(i.I2C_Send7bitAddress)
    I2C_SendData                             0x08001f91   Thumb Code     4  stm32l1xx_i2c.o(i.I2C_SendData)
    I2cDeInit                                0x08001f95   Thumb Code    10  i2c.o(i.I2cDeInit)
    I2cInit                                  0x08001fa5   Thumb Code    42  i2c.o(i.I2cInit)
    I2cMcuDeInit                             0x08001fd9   Thumb Code    54  i2c-board.o(i.I2cMcuDeInit)
    I2cMcuFormat                             0x08002011   Thumb Code   140  i2c-board.o(i.I2cMcuFormat)
    I2cMcuInit                               0x080020a1   Thumb Code    94  i2c-board.o(i.I2cMcuInit)
    I2cMcuReadBuffer                         0x08002105   Thumb Code   644  i2c-board.o(i.I2cMcuReadBuffer)
    I2cMcuWriteBuffer                        0x08002399   Thumb Code   382  i2c-board.o(i.I2cMcuWriteBuffer)
    I2cReadBuffer                            0x08002525   Thumb Code    24  i2c.o(i.I2cReadBuffer)
    I2cResetBus                              0x08002541   Thumb Code    14  i2c.o(i.I2cResetBus)
    I2cWriteBuffer                           0x08002555   Thumb Code    72  i2c.o(i.I2cWriteBuffer)
    IsFifoEmpty                              0x080025a1   Thumb Code    16  fifo.o(i.IsFifoEmpty)
    IsFifoFull                               0x080025b1   Thumb Code    26  fifo.o(i.IsFifoFull)
    MAG3110Init                              0x080025cd   Thumb Code    50  mag3110.o(i.MAG3110Init)
    MAG3110Read                              0x08002605   Thumb Code     6  mag3110.o(i.MAG3110Read)
    MAG3110ReadBuffer                        0x0800260d   Thumb Code    24  mag3110.o(i.MAG3110ReadBuffer)
    MAG3110Reset                             0x0800262d   Thumb Code    22  mag3110.o(i.MAG3110Reset)
    MAG3110SetDeviceAddr                     0x08002645   Thumb Code     6  mag3110.o(i.MAG3110SetDeviceAddr)
    MAG3110Write                             0x08002651   Thumb Code    12  mag3110.o(i.MAG3110Write)
    MAG3110WriteBuffer                       0x0800265d   Thumb Code    24  mag3110.o(i.MAG3110WriteBuffer)
    MMA8451Init                              0x0800267d   Thumb Code    50  mma8451.o(i.MMA8451Init)
    MMA8451Read                              0x080026b5   Thumb Code     6  mma8451.o(i.MMA8451Read)
    MMA8451ReadBuffer                        0x080026bd   Thumb Code    24  mma8451.o(i.MMA8451ReadBuffer)
    MMA8451Reset                             0x080026dd   Thumb Code    22  mma8451.o(i.MMA8451Reset)
    MMA8451SetDeviceAddr                     0x080026f5   Thumb Code     6  mma8451.o(i.MMA8451SetDeviceAddr)
    MMA8451Write                             0x08002701   Thumb Code    12  mma8451.o(i.MMA8451Write)
    MMA8451WriteBuffer                       0x0800270d   Thumb Code    24  mma8451.o(i.MMA8451WriteBuffer)
    MPL3115Init                              0x0800272d   Thumb Code   118  mpl3115.o(i.MPL3115Init)
    MPL3115Read                              0x080027a9   Thumb Code     6  mpl3115.o(i.MPL3115Read)
    MPL3115ReadBuffer                        0x080027b1   Thumb Code    24  mpl3115.o(i.MPL3115ReadBuffer)
    MPL3115Reset                             0x080027d1   Thumb Code    22  mpl3115.o(i.MPL3115Reset)
    MPL3115SetDeviceAddr                     0x080027e9   Thumb Code     6  mpl3115.o(i.MPL3115SetDeviceAddr)
    MPL3115SetModeActive                     0x080027f5   Thumb Code    32  mpl3115.o(i.MPL3115SetModeActive)
    MPL3115Write                             0x08002815   Thumb Code    12  mpl3115.o(i.MPL3115Write)
    MPL3115WriteBuffer                       0x08002821   Thumb Code    24  mpl3115.o(i.MPL3115WriteBuffer)
    MemManage_Handler                        0x08002841   Thumb Code     2  sysirqhandlers.o(i.MemManage_Handler)
    NMI_Handler                              0x08002843   Thumb Code     2  sysirqhandlers.o(i.NMI_Handler)
    NVIC_Init                                0x08002845   Thumb Code    98  misc.o(i.NVIC_Init)
    NVIC_PriorityGroupConfig                 0x080028ad   Thumb Code    10  misc.o(i.NVIC_PriorityGroupConfig)
    Nibble2HexChar                           0x080028c1   Thumb Code    24  utilities.o(i.Nibble2HexChar)
    OnRxDone                                 0x080028d9   Thumb Code    44  main.o(i.OnRxDone)
    OnRxError                                0x08002911   Thumb Code    16  main.o(i.OnRxError)
    OnRxTimeout                              0x08002929   Thumb Code    16  main.o(i.OnRxTimeout)
    OnTxDone                                 0x08002941   Thumb Code    16  main.o(i.OnTxDone)
    OnTxTimeout                              0x08002959   Thumb Code    16  main.o(i.OnTxTimeout)
    PWR_EnterSTOPMode                        0x08002971   Thumb Code    42  stm32l1xx_pwr.o(i.PWR_EnterSTOPMode)
    PWR_FastWakeUpCmd                        0x080029a5   Thumb Code     6  stm32l1xx_pwr.o(i.PWR_FastWakeUpCmd)
    PWR_PVDCmd                               0x080029b1   Thumb Code     6  stm32l1xx_pwr.o(i.PWR_PVDCmd)
    PWR_RTCAccessCmd                         0x080029bd   Thumb Code     6  stm32l1xx_pwr.o(i.PWR_RTCAccessCmd)
    PWR_UltraLowPowerCmd                     0x080029c9   Thumb Code     6  stm32l1xx_pwr.o(i.PWR_UltraLowPowerCmd)
    RCC_AHBPeriphClockCmd                    0x080029d5   Thumb Code    22  stm32l1xx_rcc.o(i.RCC_AHBPeriphClockCmd)
    RCC_APB1PeriphClockCmd                   0x080029f1   Thumb Code    22  stm32l1xx_rcc.o(i.RCC_APB1PeriphClockCmd)
    RCC_APB1PeriphResetCmd                   0x08002a0d   Thumb Code    22  stm32l1xx_rcc.o(i.RCC_APB1PeriphResetCmd)
    RCC_APB2PeriphClockCmd                   0x08002a29   Thumb Code    22  stm32l1xx_rcc.o(i.RCC_APB2PeriphClockCmd)
    RCC_APB2PeriphResetCmd                   0x08002a45   Thumb Code    22  stm32l1xx_rcc.o(i.RCC_APB2PeriphResetCmd)
    RCC_GetClocksFreq                        0x08002a61   Thumb Code   178  stm32l1xx_rcc.o(i.RCC_GetClocksFreq)
    RCC_GetFlagStatus                        0x08002b21   Thumb Code    38  stm32l1xx_rcc.o(i.RCC_GetFlagStatus)
    RCC_GetSYSCLKSource                      0x08002b4d   Thumb Code    10  stm32l1xx_rcc.o(i.RCC_GetSYSCLKSource)
    RCC_HSEConfig                            0x08002b5d   Thumb Code    10  stm32l1xx_rcc.o(i.RCC_HSEConfig)
    RCC_HSICmd                               0x08002b6d   Thumb Code     6  stm32l1xx_rcc.o(i.RCC_HSICmd)
    RCC_LSEConfig                            0x08002b79   Thumb Code    10  stm32l1xx_rcc.o(i.RCC_LSEConfig)
    RCC_PLLCmd                               0x08002b89   Thumb Code     6  stm32l1xx_rcc.o(i.RCC_PLLCmd)
    RCC_RTCCLKCmd                            0x08002b95   Thumb Code     6  stm32l1xx_rcc.o(i.RCC_RTCCLKCmd)
    RCC_RTCCLKConfig                         0x08002ba1   Thumb Code    48  stm32l1xx_rcc.o(i.RCC_RTCCLKConfig)
    RCC_RTCResetCmd                          0x08002bd5   Thumb Code     6  stm32l1xx_rcc.o(i.RCC_RTCResetCmd)
    RCC_SYSCLKConfig                         0x08002be1   Thumb Code    14  stm32l1xx_rcc.o(i.RCC_SYSCLKConfig)
    RTC_AlarmCmd                             0x08002bf5   Thumb Code    88  stm32l1xx_rtc.o(i.RTC_AlarmCmd)
    RTC_Alarm_IRQHandler                     0x08002c51   Thumb Code    42  rtc-board.o(i.RTC_Alarm_IRQHandler)
    RTC_ClearFlag                            0x08002ca5   Thumb Code    24  stm32l1xx_rtc.o(i.RTC_ClearFlag)
    RTC_ClearITPendingBit                    0x08002cc1   Thumb Code    24  stm32l1xx_rtc.o(i.RTC_ClearITPendingBit)
    RTC_DateStructInit                       0x08002cdd   Thumb Code    14  stm32l1xx_rtc.o(i.RTC_DateStructInit)
    RTC_EnterInitMode                        0x08002ced   Thumb Code    62  stm32l1xx_rtc.o(i.RTC_EnterInitMode)
    RTC_ExitInitMode                         0x08002d31   Thumb Code    12  stm32l1xx_rtc.o(i.RTC_ExitInitMode)
    RTC_GetDate                              0x08002d41   Thumb Code    64  stm32l1xx_rtc.o(i.RTC_GetDate)
    RTC_GetITStatus                          0x08002d89   Thumb Code    58  stm32l1xx_rtc.o(i.RTC_GetITStatus)
    RTC_GetTime                              0x08002dc9   Thumb Code    68  stm32l1xx_rtc.o(i.RTC_GetTime)
    RTC_ITConfig                             0x08002e15   Thumb Code    64  stm32l1xx_rtc.o(i.RTC_ITConfig)
    RTC_Init                                 0x08002e59   Thumb Code    74  stm32l1xx_rtc.o(i.RTC_Init)
    RTC_SetAlarm                             0x08002ea9   Thumb Code   184  stm32l1xx_rtc.o(i.RTC_SetAlarm)
    RTC_SetDate                              0x08002f65   Thumb Code   156  stm32l1xx_rtc.o(i.RTC_SetDate)
    RTC_SetTime                              0x08003009   Thumb Code   160  stm32l1xx_rtc.o(i.RTC_SetTime)
    RTC_TimeStructInit                       0x080030b1   Thumb Code    12  stm32l1xx_rtc.o(i.RTC_TimeStructInit)
    RTC_WaitForSynchro                       0x080030bd   Thumb Code    70  stm32l1xx_rtc.o(i.RTC_WaitForSynchro)
    RtcDelayMs                               0x08003129   Thumb Code    46  rtc-board.o(i.RtcDelayMs)
    RtcEnterLowPowerStopMode                 0x08003159   Thumb Code    52  rtc-board.o(i.RtcEnterLowPowerStopMode)
    RtcGetMinimumTimeout                     0x080032a5   Thumb Code     6  rtc-board.o(i.RtcGetMinimumTimeout)
    RtcGetTimerElapsedTime                   0x080032ad   Thumb Code    48  rtc-board.o(i.RtcGetTimerElapsedTime)
    RtcGetTimerValue                         0x080032e9   Thumb Code    32  rtc-board.o(i.RtcGetTimerValue)
    RtcInit                                  0x08003311   Thumb Code    24  rtc-board.o(i.RtcInit)
    RtcRecoverMcuStatus                      0x0800332d   Thumb Code    88  rtc-board.o(i.RtcRecoverMcuStatus)
    RtcSetTimeout                            0x08003461   Thumb Code    66  rtc-board.o(i.RtcSetTimeout)
    SPI_Cmd                                  0x0800364d   Thumb Code    24  stm32l1xx_spi.o(i.SPI_Cmd)
    SPI_I2S_DeInit                           0x08003665   Thumb Code    88  stm32l1xx_spi.o(i.SPI_I2S_DeInit)
    SPI_I2S_GetFlagStatus                    0x080036c9   Thumb Code    14  stm32l1xx_spi.o(i.SPI_I2S_GetFlagStatus)
    SPI_I2S_ReceiveData                      0x080036d7   Thumb Code     4  stm32l1xx_spi.o(i.SPI_I2S_ReceiveData)
    SPI_I2S_SendData                         0x080036db   Thumb Code     4  stm32l1xx_spi.o(i.SPI_I2S_SendData)
    SPI_Init                                 0x080036df   Thumb Code    56  stm32l1xx_spi.o(i.SPI_Init)
    SPI_StructInit                           0x08003717   Thumb Code    24  stm32l1xx_spi.o(i.SPI_StructInit)
    SX1272AntSwDeInit                        0x08003731   Thumb Code    40  sx1272-board.o(i.SX1272AntSwDeInit)
    SX1272AntSwInit                          0x0800375d   Thumb Code    42  sx1272-board.o(i.SX1272AntSwInit)
    SX1272CheckRfFrequency                   0x0800378d   Thumb Code     4  sx1272-board.o(i.SX1272CheckRfFrequency)
    SX1272GetPaSelect                        0x08003791   Thumb Code     4  sx1272-board.o(i.SX1272GetPaSelect)
    SX1272GetStatus                          0x08003795   Thumb Code     8  sx1272.o(i.SX1272GetStatus)
    SX1272GetTimeOnAir                       0x080037a1   Thumb Code   492  sx1272.o(i.SX1272GetTimeOnAir)
    SX1272Init                               0x080039b5   Thumb Code   102  sx1272.o(i.SX1272Init)
    SX1272IoDeInit                           0x08003a2d   Thumb Code   132  sx1272-board.o(i.SX1272IoDeInit)
    SX1272IoInit                             0x08003ab5   Thumb Code   132  sx1272-board.o(i.SX1272IoInit)
    SX1272IoIrqInit                          0x08003b3d   Thumb Code    90  sx1272-board.o(i.SX1272IoIrqInit)
    SX1272IsChannelFree                      0x08003b9d   Thumb Code    56  sx1272.o(i.SX1272IsChannelFree)
    SX1272OnDio0Irq                          0x08003bd5   Thumb Code   570  sx1272.o(i.SX1272OnDio0Irq)
    SX1272OnDio1Irq                          0x08003e21   Thumb Code   208  sx1272.o(i.SX1272OnDio1Irq)
    SX1272OnDio2Irq                          0x08003ef9   Thumb Code   220  sx1272.o(i.SX1272OnDio2Irq)
    SX1272OnDio3Irq                          0x08003fe5   Thumb Code    86  sx1272.o(i.SX1272OnDio3Irq)
    SX1272OnDio4Irq                          0x08004045   Thumb Code    26  sx1272.o(i.SX1272OnDio4Irq)
    SX1272OnTimeoutIrq                       0x08004065   Thumb Code   130  sx1272.o(i.SX1272OnTimeoutIrq)
    SX1272Random                             0x080040f5   Thumb Code    62  sx1272.o(i.SX1272Random)
    SX1272Read                               0x08004133   Thumb Code    16  sx1272.o(i.SX1272Read)
    SX1272ReadBuffer                         0x08004145   Thumb Code    68  sx1272.o(i.SX1272ReadBuffer)
    SX1272ReadFifo                           0x0800418d   Thumb Code    10  sx1272.o(i.SX1272ReadFifo)
    SX1272ReadRssi                           0x08004197   Thumb Code    38  sx1272.o(i.SX1272ReadRssi)
    SX1272Reset                              0x080041bd   Thumb Code    54  sx1272.o(i.SX1272Reset)
    SX1272Send                               0x080041f9   Thumb Code   242  sx1272.o(i.SX1272Send)
    SX1272SetAntSw                           0x080042f5   Thumb Code    64  sx1272-board.o(i.SX1272SetAntSw)
    SX1272SetAntSwLowPower                   0x0800433d   Thumb Code    22  sx1272-board.o(i.SX1272SetAntSwLowPower)
    SX1272SetChannel                         0x08004359   Thumb Code    58  sx1272.o(i.SX1272SetChannel)
    SX1272SetMaxPayloadLength                0x0800439d   Thumb Code    54  sx1272.o(i.SX1272SetMaxPayloadLength)
    SX1272SetModem                           0x080043d9   Thumb Code   114  sx1272.o(i.SX1272SetModem)
    SX1272SetOpMode                          0x08004451   Thumb Code    72  sx1272.o(i.SX1272SetOpMode)
    SX1272SetRx                              0x0800449d   Thumb Code   424  sx1272.o(i.SX1272SetRx)
    SX1272SetRxConfig                        0x0800465d   Thumb Code   546  sx1272.o(i.SX1272SetRxConfig)
    SX1272SetSleep                           0x08004889   Thumb Code    34  sx1272.o(i.SX1272SetSleep)
    SX1272SetStby                            0x080048b1   Thumb Code    34  sx1272.o(i.SX1272SetStby)
    SX1272SetTx                              0x080048d9   Thumb Code   166  sx1272.o(i.SX1272SetTx)
    SX1272SetTxConfig                        0x08004985   Thumb Code   704  sx1272.o(i.SX1272SetTxConfig)
    SX1272StartCad                           0x08004c51   Thumb Code    58  sx1272.o(i.SX1272StartCad)
    SX1272Write                              0x08004c91   Thumb Code    12  sx1272.o(i.SX1272Write)
    SX1272WriteBuffer                        0x08004c9d   Thumb Code    66  sx1272.o(i.SX1272WriteBuffer)
    SX1272WriteFifo                          0x08004ce5   Thumb Code    10  sx1272.o(i.SX1272WriteFifo)
    SX1509Init                               0x08004cf1   Thumb Code    30  sx1509.o(i.SX1509Init)
    SX1509Read                               0x08004d15   Thumb Code     6  sx1509.o(i.SX1509Read)
    SX1509ReadBuffer                         0x08004d1d   Thumb Code    24  sx1509.o(i.SX1509ReadBuffer)
    SX1509Reset                              0x08004d3d   Thumb Code    34  sx1509.o(i.SX1509Reset)
    SX1509SetDeviceAddr                      0x08004d61   Thumb Code     6  sx1509.o(i.SX1509SetDeviceAddr)
    SX1509Write                              0x08004d6d   Thumb Code    12  sx1509.o(i.SX1509Write)
    SX1509WriteBuffer                        0x08004d79   Thumb Code    24  sx1509.o(i.SX1509WriteBuffer)
    SX9500Init                               0x08004d99   Thumb Code    50  sx9500.o(i.SX9500Init)
    SX9500Read                               0x08004dd1   Thumb Code     6  sx9500.o(i.SX9500Read)
    SX9500ReadBuffer                         0x08004dd9   Thumb Code    24  sx9500.o(i.SX9500ReadBuffer)
    SX9500Reset                              0x08004df9   Thumb Code    22  sx9500.o(i.SX9500Reset)
    SX9500SetDeviceAddr                      0x08004e11   Thumb Code     6  sx9500.o(i.SX9500SetDeviceAddr)
    SX9500Write                              0x08004e1d   Thumb Code    12  sx9500.o(i.SX9500Write)
    SX9500WriteBuffer                        0x08004e29   Thumb Code    24  sx9500.o(i.SX9500WriteBuffer)
    SYSCFG_EXTILineConfig                    0x08004e49   Thumb Code    34  stm32l1xx_syscfg.o(i.SYSCFG_EXTILineConfig)
    SpiDeInit                                0x08004f3d   Thumb Code   104  spi-board.o(i.SpiDeInit)
    SpiFormat                                0x08004fa5   Thumb Code   118  spi-board.o(i.SpiFormat)
    SpiFrequency                             0x08005021   Thumb Code   104  spi-board.o(i.SpiFrequency)
    SpiInOut                                 0x08005091   Thumb Code    58  spi-board.o(i.SpiInOut)
    SpiInit                                  0x080050cd   Thumb Code   236  spi-board.o(i.SpiInit)
    SystemInit                               0x080051c5   Thumb Code    68  system_stm32l1xx.o(i.SystemInit)
    TIM2_IRQHandler                          0x08005219   Thumb Code    56  timer-board.o(i.TIM2_IRQHandler)
    TIM3_IRQHandler                          0x08005255   Thumb Code    34  timer-board.o(i.TIM3_IRQHandler)
    TIM_ClearITPendingBit                    0x0800527d   Thumb Code     6  stm32l1xx_tim.o(i.TIM_ClearITPendingBit)
    TIM_Cmd                                  0x08005283   Thumb Code    24  stm32l1xx_tim.o(i.TIM_Cmd)
    TIM_GetITStatus                          0x0800529b   Thumb Code    24  stm32l1xx_tim.o(i.TIM_GetITStatus)
    TIM_ITConfig                             0x080052b3   Thumb Code    20  stm32l1xx_tim.o(i.TIM_ITConfig)
    TIM_TimeBaseInit                         0x080052c9   Thumb Code    70  stm32l1xx_tim.o(i.TIM_TimeBaseInit)
    TimerGetLowPowerEnable                   0x08005341   Thumb Code     6  timer.o(i.TimerGetLowPowerEnable)
    TimerGetValue                            0x0800534d   Thumb Code    24  timer.o(i.TimerGetValue)
    TimerHwDelayMs                           0x08005369   Thumb Code    26  timer-board.o(i.TimerHwDelayMs)
    TimerHwEnterLowPowerStopMode             0x08005383   Thumb Code     2  timer-board.o(i.TimerHwEnterLowPowerStopMode)
    TimerHwGetDelayValue                     0x08005385   Thumb Code    10  timer-board.o(i.TimerHwGetDelayValue)
    TimerHwGetElapsedTime                    0x08005395   Thumb Code    42  timer-board.o(i.TimerHwGetElapsedTime)
    TimerHwGetMinimumTimeout                 0x080053c5   Thumb Code     4  timer-board.o(i.TimerHwGetMinimumTimeout)
    TimerHwGetTimerValue                     0x080053c9   Thumb Code    12  timer-board.o(i.TimerHwGetTimerValue)
    TimerHwInit                              0x080053d9   Thumb Code   194  timer-board.o(i.TimerHwInit)
    TimerHwStart                             0x080054a5   Thumb Code    50  timer-board.o(i.TimerHwStart)
    TimerIncrementDelayCounter               0x080054dd   Thumb Code    14  timer-board.o(i.TimerIncrementDelayCounter)
    TimerIncrementTickCounter                0x080054f1   Thumb Code    22  timer-board.o(i.TimerIncrementTickCounter)
    TimerInit                                0x0800550d   Thumb Code    14  timer.o(i.TimerInit)
    TimerIrqHandler                          0x080055a1   Thumb Code    80  timer.o(i.TimerIrqHandler)
    TimerLowPowerHandler                     0x080055f5   Thumb Code    44  timer.o(i.TimerLowPowerHandler)
    TimerSetLowPowerEnable                   0x08005625   Thumb Code     6  timer.o(i.TimerSetLowPowerEnable)
    TimerSetValue                            0x0800564d   Thumb Code    40  timer.o(i.TimerSetValue)
    TimerStart                               0x08005679   Thumb Code    94  timer.o(i.TimerStart)
    TimerStop                                0x080056dd   Thumb Code   138  timer.o(i.TimerStop)
    USART1_IRQHandler                        0x0800576d   Thumb Code   148  uart-board.o(i.USART1_IRQHandler)
    USART_Cmd                                0x08005809   Thumb Code    24  stm32l1xx_usart.o(i.USART_Cmd)
    USART_DeInit                             0x08005821   Thumb Code   144  stm32l1xx_usart.o(i.USART_DeInit)
    USART_GetITStatus                        0x080058c5   Thumb Code    64  stm32l1xx_usart.o(i.USART_GetITStatus)
    USART_ITConfig                           0x08005905   Thumb Code    54  stm32l1xx_usart.o(i.USART_ITConfig)
    USART_Init                               0x0800593d   Thumb Code   174  stm32l1xx_usart.o(i.USART_Init)
    USART_ReceiveData                        0x080059f1   Thumb Code     8  stm32l1xx_usart.o(i.USART_ReceiveData)
    USART_SendData                           0x080059f9   Thumb Code     8  stm32l1xx_usart.o(i.USART_SendData)
    UartConfig                               0x08005a01   Thumb Code    34  uart.o(i.UartConfig)
    UartDeInit                               0x08005a23   Thumb Code    16  uart.o(i.UartDeInit)
    UartGetChar                              0x08005a33   Thumb Code    14  uart.o(i.UartGetChar)
    UartInit                                 0x08005a41   Thumb Code    26  uart.o(i.UartInit)
    UartMcuConfig                            0x08005a5d   Thumb Code   302  uart-board.o(i.UartMcuConfig)
    UartMcuDeInit                            0x08005b91   Thumb Code    52  uart-board.o(i.UartMcuDeInit)
    UartMcuGetChar                           0x08005bc9   Thumb Code    34  uart-board.o(i.UartMcuGetChar)
    UartMcuInit                              0x08005bed   Thumb Code    96  uart-board.o(i.UartMcuInit)
    UsageFault_Handler                       0x08005c51   Thumb Code     2  sysirqhandlers.o(i.UsageFault_Handler)
    __scatterload_copy                       0x08005c53   Thumb Code    14  handlers.o(i.__scatterload_copy)
    __scatterload_null                       0x08005c61   Thumb Code     2  handlers.o(i.__scatterload_null)
    __scatterload_zeroinit                   0x08005c63   Thumb Code    14  handlers.o(i.__scatterload_zeroinit)
    ceil                                     0x08005c71   Thumb Code   204  ceil.o(i.ceil)
    floor                                    0x08005d4d   Thumb Code   204  floor.o(i.floor)
    main                                     0x08005e29   Thumb Code   564  main.o(i.main)
    memcpy1                                  0x08006099   Thumb Code    18  utilities.o(i.memcpy1)
    round                                    0x080060ad   Thumb Code   136  round.o(i.round)
    PingMsg                                  0x08006140   Data           8  main.o(.constdata)
    PongMsg                                  0x08006148   Data           8  main.o(.constdata)
    Radio                                    0x08006168   Data          84  sx1272-board.o(.constdata)
    RadioRegsInit                            0x080061bc   Data          48  sx1272.o(.constdata)
    FskBandwidths                            0x080061ec   Data         176  sx1272.o(.constdata)
    NmeaDataTypeGPGGA                        0x0800629c   Data           6  gps.o(.constdata)
    NmeaDataTypeGPRMC                        0x080062a2   Data           6  gps.o(.constdata)
    Region$$Table$$Base                      0x080062a8   Number         0  anon$$obj.o(Region$$Table)
    Region$$Table$$Limit                     0x080062c8   Number         0  anon$$obj.o(Region$$Table)
    State                                    0x20000000   Data           1  main.o(.data)
    RssiValue                                0x20000001   Data           1  main.o(.data)
    SnrValue                                 0x20000002   Data           1  main.o(.data)
    BufferSize                               0x20000004   Data           2  main.o(.data)
    NmeaStringSize                           0x20000007   Data           1  gps-board.o(.data)
    I2cInternalAddrSize                      0x20000008   Data           1  i2c-board.o(.data)
    TimerDelayCounter                        0x20000028   Data           4  timer-board.o(.data)
    TimerTickCounter                         0x20000030   Data           8  timer-board.o(.data)
    TimeoutCntValue                          0x20000040   Data           8  timer-board.o(.data)
    SystemCoreClock                          0x20000048   Data           4  system_stm32l1xx.o(.data)
    PLLMulTable                              0x2000004c   Data           9  system_stm32l1xx.o(.data)
    AHBPrescTable                            0x20000055   Data          16  system_stm32l1xx.o(.data)
    Pressure                                 0x20000088   Data           4  mpl3115.o(.data)
    Altitude                                 0x2000008c   Data           4  mpl3115.o(.data)
    Temperature                              0x20000090   Data           4  mpl3115.o(.data)
    DioIrq                                   0x200000a0   Data          24  sx1272.o(.data)
    PpsDetected                              0x200000c0   Data           1  gps.o(.data)
    HasLoopedThroughMain                     0x200000e5   Data           1  timer.o(.data)
    Buffer                                   0x200000ec   Data          64  main.o(.bss)
    IrqMpl3115                               0x20000148   Data          12  board.o(.bss)
    IrqMag3110                               0x20000154   Data          12  board.o(.bss)
    GpsPowerEn                               0x20000160   Data          12  board.o(.bss)
    NcIoe3                                   0x2000016c   Data          12  board.o(.bss)
    NcIoe4                                   0x20000178   Data          12  board.o(.bss)
    NcIoe5                                   0x20000184   Data          12  board.o(.bss)
    NcIoe6                                   0x20000190   Data          12  board.o(.bss)
    NcIoe7                                   0x2000019c   Data          12  board.o(.bss)
    NIrqSx9500                               0x200001a8   Data          12  board.o(.bss)
    Irq1Mma8451                              0x200001b4   Data          12  board.o(.bss)
    Irq2Mma8451                              0x200001c0   Data          12  board.o(.bss)
    TxEnSx9500                               0x200001cc   Data          12  board.o(.bss)
    Led1                                     0x200001d8   Data          12  board.o(.bss)
    Led2                                     0x200001e4   Data          12  board.o(.bss)
    Led3                                     0x200001f0   Data          12  board.o(.bss)
    Adc                                      0x200001fc   Data          16  board.o(.bss)
    I2c                                      0x2000020c   Data          28  board.o(.bss)
    GpsPps                                   0x20000228   Data          12  board.o(.bss)
    Uart1                                    0x20000234   Data          56  board.o(.bss)
    RxBuffer                                 0x200002ac   Data         128  gps-board.o(.bss)
    NmeaString                               0x2000032c   Data         128  gps-board.o(.bss)
    SPI_InitStructure                        0x200003ac   Data          18  spi-board.o(.bss)
    AntRx                                    0x200003c0   Data          12  sx1272-board.o(.bss)
    AntTx                                    0x200003cc   Data          12  sx1272-board.o(.bss)
    SX1272                                   0x200004d8   Data         232  sx1272.o(.bss)
    TxTimeoutTimer                           0x200005c0   Data          20  sx1272.o(.bss)
    RxTimeoutTimer                           0x200005d4   Data          20  sx1272.o(.bss)
    RxTimeoutSyncWord                        0x200005e8   Data          20  sx1272.o(.bss)
    NmeaGpsData                              0x200005fc   Data          99  gps.o(.bss)
    __initial_sp                             0x20000a60   Data           0  startup_stm32l1xx_md.o(STACK)



==============================================================================

Memory Map of the image

  Image Entry point : 0x080000f5

  Load Region LR_IROM1 (Base: 0x08000000, Size: 0x000063b4, Max: 0x00020000, ABSOLUTE)

    Execution Region ER_IROM1 (Base: 0x08000000, Size: 0x000062c8, Max: 0x00020000, ABSOLUTE)

    Base Addr    Size         Type   Attr      Idx    E Section Name        Object

    0x08000000   0x000000f4   Data   RO          970    RESET               startup_stm32l1xx_md.o
    0x080000f4   0x00000000   Code   RO         4714  * .ARM.Collect$$$$00000000  mc_w.l(entry.o)
    0x080000f4   0x00000004   Code   RO         4765    .ARM.Collect$$$$00000001  mc_w.l(entry2.o)
    0x080000f8   0x00000004   Code   RO         4768    .ARM.Collect$$$$00000004  mc_w.l(entry5.o)
    0x080000fc   0x00000000   Code   RO         4770    .ARM.Collect$$$$00000008  mc_w.l(entry7b.o)
    0x080000fc   0x00000000   Code   RO         4772    .ARM.Collect$$$$0000000A  mc_w.l(entry8b.o)
    0x080000fc   0x00000008   Code   RO         4773    .ARM.Collect$$$$0000000B  mc_w.l(entry9a.o)
    0x08000104   0x00000000   Code   RO         4775    .ARM.Collect$$$$0000000D  mc_w.l(entry10a.o)
    0x08000104   0x00000000   Code   RO         4777    .ARM.Collect$$$$0000000F  mc_w.l(entry11a.o)
    0x08000104   0x00000004   Code   RO         4766    .ARM.Collect$$$$00002712  mc_w.l(entry2.o)
    0x08000108   0x00000024   Code   RO          971    .text               startup_stm32l1xx_md.o
    0x0800012c   0x00000024   Code   RO         4717    .text               mc_w.l(memcpya.o)
    0x08000150   0x00000024   Code   RO         4719    .text               mc_w.l(memseta.o)
    0x08000174   0x0000001e   Code   RO         4721    .text               mc_w.l(strncmp.o)
    0x08000192   0x0000014e   Code   RO         4733    .text               mf_w.l(dadd.o)
    0x080002e0   0x000000e4   Code   RO         4735    .text               mf_w.l(dmul.o)
    0x080003c4   0x000000de   Code   RO         4737    .text               mf_w.l(ddiv.o)
    0x080004a2   0x0000002e   Code   RO         4739    .text               mf_w.l(dscalb.o)
    0x080004d0   0x00000022   Code   RO         4745    .text               mf_w.l(dflti.o)
    0x080004f2   0x0000001a   Code   RO         4747    .text               mf_w.l(dfltui.o)
    0x0800050c   0x00000018   Code   RO         4749    .text               mf_w.l(dfltul.o)
    0x08000524   0x0000003e   Code   RO         4753    .text               mf_w.l(dfixi.o)
    0x08000562   0x00000032   Code   RO         4755    .text               mf_w.l(dfixui.o)
    0x08000594   0x00000030   Code   RO         4757    .text               mf_w.l(dfixul.o)
    0x080005c4   0x00000030   Code   RO         4759    .text               mf_w.l(cdcmple.o)
    0x080005f4   0x00000030   Code   RO         4761    .text               mf_w.l(cdrcmple.o)
    0x08000624   0x0000001e   Code   RO         4779    .text               mc_w.l(llshl.o)
    0x08000642   0x00000020   Code   RO         4781    .text               mc_w.l(llushr.o)
    0x08000662   0x00000024   Code   RO         4783    .text               mc_w.l(llsshr.o)
    0x08000686   0x00000000   Code   RO         4794    .text               mc_w.l(iusefp.o)
    0x08000686   0x000000ba   Code   RO         4797    .text               mf_w.l(depilogue.o)
    0x08000740   0x00000088   Code   RO         4799    .text               mf_w.l(drnd.o)
    0x080007c8   0x00000024   Code   RO         4801    .text               mc_w.l(init.o)
    0x080007ec   0x00000014   Code   RO         1127    i.ADC_CommonInit    stm32l1xx_adc.o
    0x08000800   0x00000024   Code   RO         1132    i.ADC_DeInit        stm32l1xx_adc.o
    0x08000824   0x0000000c   Code   RO         1133    i.ADC_DelaySelectionConfig  stm32l1xx_adc.o
    0x08000830   0x0000004c   Code   RO         1146    i.ADC_Init          stm32l1xx_adc.o
    0x0800087c   0x00000018   Code   RO         1155    i.ADC_StructInit    stm32l1xx_adc.o
    0x08000894   0x0000002c   Code   RO         4228    i.AdcInit           adc.o
    0x080008c0   0x000000d8   Code   RO          257    i.AdcMcuFormat      adc-board.o
    0x08000998   0x00000028   Code   RO          258    i.AdcMcuInit        adc-board.o
    0x080009c0   0x00000018   Code   RO          558    i.BlockLowPowerDuringTask  rtc-board.o
    0x080009d8   0x00000070   Code   RO          302    i.BoardDeInitMcu    board.o
    0x08000a48   0x00000084   Code   RO          306    i.BoardInitMcu      board.o
    0x08000acc   0x0000014c   Code   RO          307    i.BoardInitPeriph   board.o
    0x08000c18   0x000000d2   Code   RO          308    i.BoardUnusedIoInit  board.o
    0x08000cea   0x00000002   Code   RO         3487    i.BusFault_Handler  sysirqhandlers.o
    0x08000cec   0x0000001c   Code   RO         1363    i.DBGMCU_Config     stm32l1xx_dbgmcu.o
    0x08000d08   0x00000002   Code   RO         3488    i.DebugMon_Handler  sysirqhandlers.o
    0x08000d0a   0x0000001e   Code   RO         4262    i.DelayMs           delay.o
    0x08000d28   0x00000030   Code   RO          369    i.EXTI0_IRQHandler  gpio-board.o
    0x08000d58   0x000000ac   Code   RO          370    i.EXTI15_10_IRQHandler  gpio-board.o
    0x08000e04   0x00000030   Code   RO          371    i.EXTI1_IRQHandler  gpio-board.o
    0x08000e34   0x00000030   Code   RO          372    i.EXTI2_IRQHandler  gpio-board.o
    0x08000e64   0x00000030   Code   RO          373    i.EXTI3_IRQHandler  gpio-board.o
    0x08000e94   0x00000030   Code   RO          374    i.EXTI4_IRQHandler  gpio-board.o
    0x08000ec4   0x00000088   Code   RO          375    i.EXTI9_5_IRQHandler  gpio-board.o
    0x08000f4c   0x0000000c   Code   RO         1486    i.EXTI_ClearITPendingBit  stm32l1xx_exti.o
    0x08000f58   0x00000014   Code   RO         1490    i.EXTI_GetITStatus  stm32l1xx_exti.o
    0x08000f6c   0x00000074   Code   RO         1491    i.EXTI_Init         stm32l1xx_exti.o
    0x08000fe0   0x0000000c   Code   RO         4286    i.FifoInit          fifo.o
    0x08000fec   0x00000010   Code   RO         4287    i.FifoNext          fifo.o
    0x08000ffc   0x0000001e   Code   RO         4288    i.FifoPop           fifo.o
    0x0800101a   0x00000016   Code   RO         4289    i.FifoPush          fifo.o
    0x08001030   0x0000007a   Code   RO         1548    i.GPIO_Init         stm32l1xx_gpio.o
    0x080010aa   0x00000020   Code   RO         1549    i.GPIO_PinAFConfig  stm32l1xx_gpio.o
    0x080010ca   0x0000000e   Code   RO         1552    i.GPIO_ReadInputDataBit  stm32l1xx_gpio.o
    0x080010d8   0x00000004   Code   RO         1555    i.GPIO_ResetBits    stm32l1xx_gpio.o
    0x080010dc   0x00000004   Code   RO         1556    i.GPIO_SetBits      stm32l1xx_gpio.o
    0x080010e0   0x0000002c   Code   RO         4008    i.GetFskBandwidthRegValue  sx1272.o
    0x0800110c   0x00000022   Code   RO         4334    i.GpioInit          gpio.o
    0x0800112e   0x000000ac   Code   RO         3589    i.GpioIoeInit       gpio-ioe.o
    0x080011da   0x0000003a   Code   RO         3590    i.GpioIoeRead       gpio-ioe.o
    0x08001214   0x00000002   Code   RO         3591    i.GpioIoeSetInterrupt  gpio-ioe.o
    0x08001216   0x00000050   Code   RO         3592    i.GpioIoeWrite      gpio-ioe.o
    0x08001266   0x00000002   PAD
    0x08001268   0x00000084   Code   RO          376    i.GpioMcuInit       gpio-board.o
    0x080012ec   0x0000001a   Code   RO          377    i.GpioMcuRead       gpio-board.o
    0x08001306   0x00000002   PAD
    0x08001308   0x000000f8   Code   RO          379    i.GpioMcuSetInterrupt  gpio-board.o
    0x08001400   0x00000026   Code   RO          380    i.GpioMcuWrite      gpio-board.o
    0x08001426   0x00000014   Code   RO         4335    i.GpioRead          gpio.o
    0x0800143a   0x0000001a   Code   RO         4337    i.GpioSetInterrupt  gpio.o
    0x08001454   0x00000014   Code   RO         4338    i.GpioWrite         gpio.o
    0x08001468   0x00000268   Code   RO         4378    i.GpsConvertPositionFromStringToNumerical  gps.o
    0x080016d0   0x000000ac   Code   RO         4379    i.GpsConvertPositionIntoBinary  gps.o
    0x0800177c   0x0000000e   Code   RO         4380    i.GpsFormatGpsData  gps.o
    0x0800178a   0x00000002   PAD
    0x0800178c   0x00000010   Code   RO         4386    i.GpsInit           gps.o
    0x0800179c   0x00000060   Code   RO          460    i.GpsMcuInit        gps-board.o
    0x080017fc   0x00000058   Code   RO          461    i.GpsMcuIrqNotify   gps-board.o
    0x08001854   0x0000003c   Code   RO          462    i.GpsMcuOnPpsSignal  gps-board.o
    0x08001890   0x0000004e   Code   RO         4387    i.GpsNmeaChecksum   gps.o
    0x080018de   0x00000042   Code   RO         4388    i.GpsNmeaValidateChecksum  gps.o
    0x08001920   0x00000490   Code   RO         4389    i.GpsParseGpsData   gps.o
    0x08001db0   0x00000028   Code   RO         4390    i.GpsPpsHandler     gps.o
    0x08001dd8   0x00000018   Code   RO         1646    i.I2C_AcknowledgeConfig  stm32l1xx_i2c.o
    0x08001df0   0x00000018   Code   RO         1648    i.I2C_CheckEvent    stm32l1xx_i2c.o
    0x08001e08   0x00000018   Code   RO         1651    i.I2C_Cmd           stm32l1xx_i2c.o
    0x08001e20   0x00000038   Code   RO         1654    i.I2C_DeInit        stm32l1xx_i2c.o
    0x08001e58   0x00000018   Code   RO         1658    i.I2C_GenerateSTART  stm32l1xx_i2c.o
    0x08001e70   0x00000018   Code   RO         1659    i.I2C_GenerateSTOP  stm32l1xx_i2c.o
    0x08001e88   0x00000032   Code   RO         1660    i.I2C_GetFlagStatus  stm32l1xx_i2c.o
    0x08001eba   0x00000002   PAD
    0x08001ebc   0x000000bc   Code   RO         1665    i.I2C_Init          stm32l1xx_i2c.o
    0x08001f78   0x00000006   Code   RO         1670    i.I2C_ReceiveData   stm32l1xx_i2c.o
    0x08001f7e   0x00000012   Code   RO         1672    i.I2C_Send7bitAddress  stm32l1xx_i2c.o
    0x08001f90   0x00000004   Code   RO         1673    i.I2C_SendData      stm32l1xx_i2c.o
    0x08001f94   0x00000010   Code   RO         4489    i.I2cDeInit         i2c.o
    0x08001fa4   0x00000034   Code   RO         4490    i.I2cInit           i2c.o
    0x08001fd8   0x00000036   Code   RO          496    i.I2cMcuDeInit      i2c-board.o
    0x0800200e   0x00000002   PAD
    0x08002010   0x00000090   Code   RO          497    i.I2cMcuFormat      i2c-board.o
    0x080020a0   0x00000064   Code   RO          498    i.I2cMcuInit        i2c-board.o
    0x08002104   0x00000294   Code   RO          499    i.I2cMcuReadBuffer  i2c-board.o
    0x08002398   0x0000018c   Code   RO          501    i.I2cMcuWriteBuffer  i2c-board.o
    0x08002524   0x0000001c   Code   RO         4492    i.I2cReadBuffer     i2c.o
    0x08002540   0x00000014   Code   RO         4493    i.I2cResetBus       i2c.o
    0x08002554   0x0000004c   Code   RO         4495    i.I2cWriteBuffer    i2c.o
    0x080025a0   0x00000010   Code   RO         4290    i.IsFifoEmpty       fifo.o
    0x080025b0   0x0000001a   Code   RO         4291    i.IsFifoFull        fifo.o
    0x080025ca   0x00000002   PAD
    0x080025cc   0x00000038   Code   RO         3634    i.MAG3110Init       mag3110.o
    0x08002604   0x00000006   Code   RO         3635    i.MAG3110Read       mag3110.o
    0x0800260a   0x00000002   PAD
    0x0800260c   0x00000020   Code   RO         3636    i.MAG3110ReadBuffer  mag3110.o
    0x0800262c   0x00000016   Code   RO         3637    i.MAG3110Reset      mag3110.o
    0x08002642   0x00000002   PAD
    0x08002644   0x0000000c   Code   RO         3638    i.MAG3110SetDeviceAddr  mag3110.o
    0x08002650   0x0000000c   Code   RO         3639    i.MAG3110Write      mag3110.o
    0x0800265c   0x00000020   Code   RO         3640    i.MAG3110WriteBuffer  mag3110.o
    0x0800267c   0x00000038   Code   RO         3698    i.MMA8451Init       mma8451.o
    0x080026b4   0x00000006   Code   RO         3699    i.MMA8451Read       mma8451.o
    0x080026ba   0x00000002   PAD
    0x080026bc   0x00000020   Code   RO         3700    i.MMA8451ReadBuffer  mma8451.o
    0x080026dc   0x00000016   Code   RO         3701    i.MMA8451Reset      mma8451.o
    0x080026f2   0x00000002   PAD
    0x080026f4   0x0000000c   Code   RO         3702    i.MMA8451SetDeviceAddr  mma8451.o
    0x08002700   0x0000000c   Code   RO         3703    i.MMA8451Write      mma8451.o
    0x0800270c   0x00000020   Code   RO         3704    i.MMA8451WriteBuffer  mma8451.o
    0x0800272c   0x0000007c   Code   RO         3762    i.MPL3115Init       mpl3115.o
    0x080027a8   0x00000006   Code   RO         3763    i.MPL3115Read       mpl3115.o
    0x080027ae   0x00000002   PAD
    0x080027b0   0x00000020   Code   RO         3765    i.MPL3115ReadBuffer  mpl3115.o
    0x080027d0   0x00000016   Code   RO         3768    i.MPL3115Reset      mpl3115.o
    0x080027e6   0x00000002   PAD
    0x080027e8   0x0000000c   Code   RO         3769    i.MPL3115SetDeviceAddr  mpl3115.o
    0x080027f4   0x00000020   Code   RO         3770    i.MPL3115SetModeActive  mpl3115.o
    0x08002814   0x0000000c   Code   RO         3775    i.MPL3115Write      mpl3115.o
    0x08002820   0x00000020   Code   RO         3776    i.MPL3115WriteBuffer  mpl3115.o
    0x08002840   0x00000002   Code   RO         3489    i.MemManage_Handler  sysirqhandlers.o
    0x08002842   0x00000002   Code   RO         3490    i.NMI_Handler       sysirqhandlers.o
    0x08002844   0x00000068   Code   RO         1075    i.NVIC_Init         misc.o
    0x080028ac   0x00000014   Code   RO         1076    i.NVIC_PriorityGroupConfig  misc.o
    0x080028c0   0x00000018   Code   RO         3531    i.Nibble2HexChar    utilities.o
    0x080028d8   0x00000038   Code   RO            3    i.OnRxDone          main.o
    0x08002910   0x00000018   Code   RO            4    i.OnRxError         main.o
    0x08002928   0x00000018   Code   RO            5    i.OnRxTimeout       main.o
    0x08002940   0x00000018   Code   RO            6    i.OnTxDone          main.o
    0x08002958   0x00000018   Code   RO            7    i.OnTxTimeout       main.o
    0x08002970   0x00000034   Code   RO         1861    i.PWR_EnterSTOPMode  stm32l1xx_pwr.o
    0x080029a4   0x0000000c   Code   RO         1863    i.PWR_FastWakeUpCmd  stm32l1xx_pwr.o
    0x080029b0   0x0000000c   Code   RO         1865    i.PWR_PVDCmd        stm32l1xx_pwr.o
    0x080029bc   0x0000000c   Code   RO         1867    i.PWR_RTCAccessCmd  stm32l1xx_pwr.o
    0x080029c8   0x0000000c   Code   RO         1868    i.PWR_UltraLowPowerCmd  stm32l1xx_pwr.o
    0x080029d4   0x0000001c   Code   RO         1955    i.RCC_AHBPeriphClockCmd  stm32l1xx_rcc.o
    0x080029f0   0x0000001c   Code   RO         1958    i.RCC_APB1PeriphClockCmd  stm32l1xx_rcc.o
    0x08002a0c   0x0000001c   Code   RO         1960    i.RCC_APB1PeriphResetCmd  stm32l1xx_rcc.o
    0x08002a28   0x0000001c   Code   RO         1961    i.RCC_APB2PeriphClockCmd  stm32l1xx_rcc.o
    0x08002a44   0x0000001c   Code   RO         1963    i.RCC_APB2PeriphResetCmd  stm32l1xx_rcc.o
    0x08002a60   0x000000c0   Code   RO         1970    i.RCC_GetClocksFreq  stm32l1xx_rcc.o
    0x08002b20   0x0000002c   Code   RO         1971    i.RCC_GetFlagStatus  stm32l1xx_rcc.o
    0x08002b4c   0x00000010   Code   RO         1973    i.RCC_GetSYSCLKSource  stm32l1xx_rcc.o
    0x08002b5c   0x00000010   Code   RO         1975    i.RCC_HSEConfig     stm32l1xx_rcc.o
    0x08002b6c   0x0000000c   Code   RO         1976    i.RCC_HSICmd        stm32l1xx_rcc.o
    0x08002b78   0x00000010   Code   RO         1979    i.RCC_LSEConfig     stm32l1xx_rcc.o
    0x08002b88   0x0000000c   Code   RO         1986    i.RCC_PLLCmd        stm32l1xx_rcc.o
    0x08002b94   0x0000000c   Code   RO         1988    i.RCC_RTCCLKCmd     stm32l1xx_rcc.o
    0x08002ba0   0x00000034   Code   RO         1989    i.RCC_RTCCLKConfig  stm32l1xx_rcc.o
    0x08002bd4   0x0000000c   Code   RO         1990    i.RCC_RTCResetCmd   stm32l1xx_rcc.o
    0x08002be0   0x00000014   Code   RO         1991    i.RCC_SYSCLKConfig  stm32l1xx_rcc.o
    0x08002bf4   0x0000005c   Code   RO         2199    i.RTC_AlarmCmd      stm32l1xx_rtc.o
    0x08002c50   0x0000002a   Code   RO          559    i.RTC_Alarm_IRQHandler  rtc-board.o
    0x08002c7a   0x00000012   Code   RO         2202    i.RTC_Bcd2ToByte    stm32l1xx_rtc.o
    0x08002c8c   0x00000018   Code   RO         2204    i.RTC_ByteToBcd2    stm32l1xx_rtc.o
    0x08002ca4   0x0000001c   Code   RO         2207    i.RTC_ClearFlag     stm32l1xx_rtc.o
    0x08002cc0   0x0000001c   Code   RO         2208    i.RTC_ClearITPendingBit  stm32l1xx_rtc.o
    0x08002cdc   0x0000000e   Code   RO         2211    i.RTC_DateStructInit  stm32l1xx_rtc.o
    0x08002cea   0x00000002   PAD
    0x08002cec   0x00000044   Code   RO         2214    i.RTC_EnterInitMode  stm32l1xx_rtc.o
    0x08002d30   0x00000010   Code   RO         2215    i.RTC_ExitInitMode  stm32l1xx_rtc.o
    0x08002d40   0x00000048   Code   RO         2218    i.RTC_GetDate       stm32l1xx_rtc.o
    0x08002d88   0x00000040   Code   RO         2220    i.RTC_GetITStatus   stm32l1xx_rtc.o
    0x08002dc8   0x0000004c   Code   RO         2223    i.RTC_GetTime       stm32l1xx_rtc.o
    0x08002e14   0x00000044   Code   RO         2227    i.RTC_ITConfig      stm32l1xx_rtc.o
    0x08002e58   0x00000050   Code   RO         2228    i.RTC_Init          stm32l1xx_rtc.o
    0x08002ea8   0x000000bc   Code   RO         2233    i.RTC_SetAlarm      stm32l1xx_rtc.o
    0x08002f64   0x000000a4   Code   RO         2234    i.RTC_SetDate       stm32l1xx_rtc.o
    0x08003008   0x000000a8   Code   RO         2235    i.RTC_SetTime       stm32l1xx_rtc.o
    0x080030b0   0x0000000c   Code   RO         2248    i.RTC_TimeStructInit  stm32l1xx_rtc.o
    0x080030bc   0x0000004c   Code   RO         2249    i.RTC_WaitForSynchro  stm32l1xx_rtc.o
    0x08003108   0x00000020   Code   RO          560    i.RtcClearStatus    rtc-board.o
    0x08003128   0x0000002e   Code   RO          561    i.RtcDelayMs        rtc-board.o
    0x08003156   0x00000002   PAD
    0x08003158   0x00000038   Code   RO          562    i.RtcEnterLowPowerStopMode  rtc-board.o
    0x08003190   0x00000114   Code   RO          563    i.RtcGetCalendarValue  rtc-board.o
    0x080032a4   0x00000006   Code   RO          564    i.RtcGetMinimumTimeout  rtc-board.o
    0x080032aa   0x00000002   PAD
    0x080032ac   0x0000003c   Code   RO          565    i.RtcGetTimerElapsedTime  rtc-board.o
    0x080032e8   0x00000028   Code   RO          566    i.RtcGetTimerValue  rtc-board.o
    0x08003310   0x0000001c   Code   RO          567    i.RtcInit           rtc-board.o
    0x0800332c   0x0000005c   Code   RO          568    i.RtcRecoverMcuStatus  rtc-board.o
    0x08003388   0x00000064   Code   RO          569    i.RtcSetAlarmConfig  rtc-board.o
    0x080033ec   0x00000074   Code   RO          570    i.RtcSetConfig      rtc-board.o
    0x08003460   0x00000050   Code   RO          571    i.RtcSetTimeout     rtc-board.o
    0x080034b0   0x0000019c   Code   RO          572    i.RtcStartWakeUpAlarm  rtc-board.o
    0x0800364c   0x00000018   Code   RO         2546    i.SPI_Cmd           stm32l1xx_spi.o
    0x08003664   0x00000064   Code   RO         2553    i.SPI_I2S_DeInit    stm32l1xx_spi.o
    0x080036c8   0x0000000e   Code   RO         2554    i.SPI_I2S_GetFlagStatus  stm32l1xx_spi.o
    0x080036d6   0x00000004   Code   RO         2557    i.SPI_I2S_ReceiveData  stm32l1xx_spi.o
    0x080036da   0x00000004   Code   RO         2558    i.SPI_I2S_SendData  stm32l1xx_spi.o
    0x080036de   0x00000038   Code   RO         2559    i.SPI_Init          stm32l1xx_spi.o
    0x08003716   0x00000018   Code   RO         2562    i.SPI_StructInit    stm32l1xx_spi.o
    0x0800372e   0x00000002   PAD
    0x08003730   0x0000002c   Code   RO          730    i.SX1272AntSwDeInit  sx1272-board.o
    0x0800375c   0x00000030   Code   RO          731    i.SX1272AntSwInit   sx1272-board.o
    0x0800378c   0x00000004   Code   RO          732    i.SX1272CheckRfFrequency  sx1272-board.o
    0x08003790   0x00000004   Code   RO          733    i.SX1272GetPaSelect  sx1272-board.o
    0x08003794   0x0000000c   Code   RO         4009    i.SX1272GetStatus   sx1272.o
    0x080037a0   0x00000214   Code   RO         4010    i.SX1272GetTimeOnAir  sx1272.o
    0x080039b4   0x00000078   Code   RO         4011    i.SX1272Init        sx1272.o
    0x08003a2c   0x00000088   Code   RO          734    i.SX1272IoDeInit    sx1272-board.o
    0x08003ab4   0x00000088   Code   RO          735    i.SX1272IoInit      sx1272-board.o
    0x08003b3c   0x00000060   Code   RO          736    i.SX1272IoIrqInit   sx1272-board.o
    0x08003b9c   0x00000038   Code   RO         4012    i.SX1272IsChannelFree  sx1272.o
    0x08003bd4   0x0000024c   Code   RO         4013    i.SX1272OnDio0Irq   sx1272.o
    0x08003e20   0x000000d8   Code   RO         4014    i.SX1272OnDio1Irq   sx1272.o
    0x08003ef8   0x000000ec   Code   RO         4015    i.SX1272OnDio2Irq   sx1272.o
    0x08003fe4   0x00000060   Code   RO         4016    i.SX1272OnDio3Irq   sx1272.o
    0x08004044   0x00000020   Code   RO         4017    i.SX1272OnDio4Irq   sx1272.o
    0x08004064   0x00000090   Code   RO         4019    i.SX1272OnTimeoutIrq  sx1272.o
    0x080040f4   0x0000003e   Code   RO         4020    i.SX1272Random      sx1272.o
    0x08004132   0x00000010   Code   RO         4021    i.SX1272Read        sx1272.o
    0x08004142   0x00000002   PAD
    0x08004144   0x00000048   Code   RO         4022    i.SX1272ReadBuffer  sx1272.o
    0x0800418c   0x0000000a   Code   RO         4023    i.SX1272ReadFifo    sx1272.o
    0x08004196   0x00000026   Code   RO         4024    i.SX1272ReadRssi    sx1272.o
    0x080041bc   0x0000003c   Code   RO         4025    i.SX1272Reset       sx1272.o
    0x080041f8   0x000000fc   Code   RO         4026    i.SX1272Send        sx1272.o
    0x080042f4   0x00000048   Code   RO          737    i.SX1272SetAntSw    sx1272-board.o
    0x0800433c   0x0000001c   Code   RO          738    i.SX1272SetAntSwLowPower  sx1272-board.o
    0x08004358   0x00000044   Code   RO         4027    i.SX1272SetChannel  sx1272.o
    0x0800439c   0x0000003c   Code   RO         4028    i.SX1272SetMaxPayloadLength  sx1272.o
    0x080043d8   0x00000078   Code   RO         4029    i.SX1272SetModem    sx1272.o
    0x08004450   0x0000004c   Code   RO         4030    i.SX1272SetOpMode   sx1272.o
    0x0800449c   0x000001c0   Code   RO         4031    i.SX1272SetRx       sx1272.o
    0x0800465c   0x0000022c   Code   RO         4032    i.SX1272SetRxConfig  sx1272.o
    0x08004888   0x00000028   Code   RO         4033    i.SX1272SetSleep    sx1272.o
    0x080048b0   0x00000028   Code   RO         4034    i.SX1272SetStby     sx1272.o
    0x080048d8   0x000000ac   Code   RO         4035    i.SX1272SetTx       sx1272.o
    0x08004984   0x000002cc   Code   RO         4036    i.SX1272SetTxConfig  sx1272.o
    0x08004c50   0x00000040   Code   RO         4037    i.SX1272StartCad    sx1272.o
    0x08004c90   0x0000000c   Code   RO         4038    i.SX1272Write       sx1272.o
    0x08004c9c   0x00000048   Code   RO         4039    i.SX1272WriteBuffer  sx1272.o
    0x08004ce4   0x0000000a   Code   RO         4040    i.SX1272WriteFifo   sx1272.o
    0x08004cee   0x00000002   PAD
    0x08004cf0   0x00000024   Code   RO         3875    i.SX1509Init        sx1509.o
    0x08004d14   0x00000006   Code   RO         3876    i.SX1509Read        sx1509.o
    0x08004d1a   0x00000002   PAD
    0x08004d1c   0x00000020   Code   RO         3877    i.SX1509ReadBuffer  sx1509.o
    0x08004d3c   0x00000022   Code   RO         3878    i.SX1509Reset       sx1509.o
    0x08004d5e   0x00000002   PAD
    0x08004d60   0x0000000c   Code   RO         3879    i.SX1509SetDeviceAddr  sx1509.o
    0x08004d6c   0x0000000c   Code   RO         3880    i.SX1509Write       sx1509.o
    0x08004d78   0x00000020   Code   RO         3881    i.SX1509WriteBuffer  sx1509.o
    0x08004d98   0x00000038   Code   RO         3939    i.SX9500Init        sx9500.o
    0x08004dd0   0x00000006   Code   RO         3941    i.SX9500Read        sx9500.o
    0x08004dd6   0x00000002   PAD
    0x08004dd8   0x00000020   Code   RO         3942    i.SX9500ReadBuffer  sx9500.o
    0x08004df8   0x00000016   Code   RO         3943    i.SX9500Reset       sx9500.o
    0x08004e0e   0x00000002   PAD
    0x08004e10   0x0000000c   Code   RO         3944    i.SX9500SetDeviceAddr  sx9500.o
    0x08004e1c   0x0000000c   Code   RO         3945    i.SX9500Write       sx9500.o
    0x08004e28   0x00000020   Code   RO         3946    i.SX9500WriteBuffer  sx9500.o
    0x08004e48   0x00000028   Code   RO         2694    i.SYSCFG_EXTILineConfig  stm32l1xx_syscfg.o
    0x08004e70   0x000000cc   Code   RO          977    i.SetSysClock       system_stm32l1xx.o
    0x08004f3c   0x00000068   Code   RO          683    i.SpiDeInit         spi-board.o
    0x08004fa4   0x0000007c   Code   RO          684    i.SpiFormat         spi-board.o
    0x08005020   0x00000070   Code   RO          685    i.SpiFrequency      spi-board.o
    0x08005090   0x0000003a   Code   RO          686    i.SpiInOut          spi-board.o
    0x080050ca   0x00000002   PAD
    0x080050cc   0x000000f8   Code   RO          687    i.SpiInit           spi-board.o
    0x080051c4   0x00000054   Code   RO          979    i.SystemInit        system_stm32l1xx.o
    0x08005218   0x0000003c   Code   RO          813    i.TIM2_IRQHandler   timer-board.o
    0x08005254   0x00000028   Code   RO          814    i.TIM3_IRQHandler   timer-board.o
    0x0800527c   0x00000006   Code   RO         2792    i.TIM_ClearITPendingBit  stm32l1xx_tim.o
    0x08005282   0x00000018   Code   RO         2797    i.TIM_Cmd           stm32l1xx_tim.o
    0x0800529a   0x00000018   Code   RO         2817    i.TIM_GetITStatus   stm32l1xx_tim.o
    0x080052b2   0x00000014   Code   RO         2821    i.TIM_ITConfig      stm32l1xx_tim.o
    0x080052c6   0x00000002   PAD
    0x080052c8   0x0000005c   Code   RO         2865    i.TIM_TimeBaseInit  stm32l1xx_tim.o
    0x08005324   0x0000001c   Code   RO         4547    i.TimerExists       timer.o
    0x08005340   0x0000000c   Code   RO         4549    i.TimerGetLowPowerEnable  timer.o
    0x0800534c   0x0000001c   Code   RO         4550    i.TimerGetValue     timer.o
    0x08005368   0x0000001a   Code   RO          816    i.TimerHwDelayMs    timer-board.o
    0x08005382   0x00000002   Code   RO          817    i.TimerHwEnterLowPowerStopMode  timer-board.o
    0x08005384   0x00000010   Code   RO          818    i.TimerHwGetDelayValue  timer-board.o
    0x08005394   0x00000030   Code   RO          819    i.TimerHwGetElapsedTime  timer-board.o
    0x080053c4   0x00000004   Code   RO          820    i.TimerHwGetMinimumTimeout  timer-board.o
    0x080053c8   0x00000010   Code   RO          822    i.TimerHwGetTimerValue  timer-board.o
    0x080053d8   0x000000cc   Code   RO          823    i.TimerHwInit       timer-board.o
    0x080054a4   0x00000038   Code   RO          824    i.TimerHwStart      timer-board.o
    0x080054dc   0x00000014   Code   RO          826    i.TimerIncrementDelayCounter  timer-board.o
    0x080054f0   0x0000001c   Code   RO          827    i.TimerIncrementTickCounter  timer-board.o
    0x0800550c   0x0000000e   Code   RO         4551    i.TimerInit         timer.o
    0x0800551a   0x00000002   PAD
    0x0800551c   0x00000028   Code   RO         4552    i.TimerInsertNewHeadTimer  timer.o
    0x08005544   0x0000005c   Code   RO         4553    i.TimerInsertTimer  timer.o
    0x080055a0   0x00000054   Code   RO         4554    i.TimerIrqHandler   timer.o
    0x080055f4   0x00000030   Code   RO         4555    i.TimerLowPowerHandler  timer.o
    0x08005624   0x0000000c   Code   RO         4557    i.TimerSetLowPowerEnable  timer.o
    0x08005630   0x0000001c   Code   RO         4558    i.TimerSetTimeout   timer.o
    0x0800564c   0x0000002c   Code   RO         4559    i.TimerSetValue     timer.o
    0x08005678   0x00000064   Code   RO         4560    i.TimerStart        timer.o
    0x080056dc   0x00000090   Code   RO         4561    i.TimerStop         timer.o
    0x0800576c   0x0000009c   Code   RO          920    i.USART1_IRQHandler  uart-board.o
    0x08005808   0x00000018   Code   RO         3303    i.USART_Cmd         stm32l1xx_usart.o
    0x08005820   0x000000a4   Code   RO         3305    i.USART_DeInit      stm32l1xx_usart.o
    0x080058c4   0x00000040   Code   RO         3307    i.USART_GetITStatus  stm32l1xx_usart.o
    0x08005904   0x00000036   Code   RO         3309    i.USART_ITConfig    stm32l1xx_usart.o
    0x0800593a   0x00000002   PAD
    0x0800593c   0x000000b4   Code   RO         3310    i.USART_Init        stm32l1xx_usart.o
    0x080059f0   0x00000008   Code   RO         3317    i.USART_ReceiveData  stm32l1xx_usart.o
    0x080059f8   0x00000008   Code   RO         3320    i.USART_SendData    stm32l1xx_usart.o
    0x08005a00   0x00000022   Code   RO         4650    i.UartConfig        uart.o
    0x08005a22   0x00000010   Code   RO         4651    i.UartDeInit        uart.o
    0x08005a32   0x0000000e   Code   RO         4653    i.UartGetChar       uart.o
    0x08005a40   0x0000001a   Code   RO         4654    i.UartInit          uart.o
    0x08005a5a   0x00000002   PAD
    0x08005a5c   0x00000134   Code   RO          921    i.UartMcuConfig     uart-board.o
    0x08005b90   0x00000038   Code   RO          922    i.UartMcuDeInit     uart-board.o
    0x08005bc8   0x00000022   Code   RO          923    i.UartMcuGetChar    uart-board.o
    0x08005bea   0x00000002   PAD
    0x08005bec   0x00000064   Code   RO          924    i.UartMcuInit       uart-board.o
    0x08005c50   0x00000002   Code   RO         3491    i.UsageFault_Handler  sysirqhandlers.o
    0x08005c52   0x0000000e   Code   RO         4837    i.__scatterload_copy  mc_w.l(handlers.o)
    0x08005c60   0x00000002   Code   RO         4838    i.__scatterload_null  mc_w.l(handlers.o)
    0x08005c62   0x0000000e   Code   RO         4839    i.__scatterload_zeroinit  mc_w.l(handlers.o)
    0x08005c70   0x000000dc   Code   RO         4705    i.ceil              m_ws.l(ceil.o)
    0x08005d4c   0x000000dc   Code   RO         4709    i.floor             m_ws.l(floor.o)
    0x08005e28   0x00000270   Code   RO            8    i.main              main.o
    0x08006098   0x00000012   Code   RO         3532    i.memcpy1           utilities.o
    0x080060aa   0x00000002   PAD
    0x080060ac   0x00000094   Code   RO         4712    i.round             m_ws.l(round.o)
    0x08006140   0x00000010   Data   RO           10    .constdata          main.o
    0x08006150   0x00000018   Data   RO          574    .constdata          rtc-board.o
    0x08006168   0x00000054   Data   RO          740    .constdata          sx1272-board.o
    0x080061bc   0x000000e0   Data   RO         4042    .constdata          sx1272.o
    0x0800629c   0x0000000c   Data   RO         4393    .constdata          gps.o
    0x080062a8   0x00000020   Data   RO         4835    Region$$Table       anon$$obj.o


    Execution Region RW_IRAM1 (Base: 0x20000000, Size: 0x00000a60, Max: 0x00004000, ABSOLUTE)

    Base Addr    Size         Type   Attr      Idx    E Section Name        Object

    0x20000000   0x00000006   Data   RW           11    .data               main.o
    0x20000006   0x00000001   Data   RW          314    .data               board.o
    0x20000007   0x00000001   Data   RW          464    .data               gps-board.o
    0x20000008   0x00000001   Data   RW          503    .data               i2c-board.o
    0x20000009   0x00000007   PAD
    0x20000010   0x00000010   Data   RW          575    .data               rtc-board.o
    0x20000020   0x00000001   Data   RW          741    .data               sx1272-board.o
    0x20000021   0x00000007   PAD
    0x20000028   0x00000020   Data   RW          828    .data               timer-board.o
    0x20000048   0x0000001d   Data   RW          980    .data               system_stm32l1xx.o
    0x20000065   0x00000019   Data   RW         1993    .data               stm32l1xx_rcc.o
    0x2000007e   0x00000002   Data   RW         3641    .data               mag3110.o
    0x20000080   0x00000002   Data   RW         3705    .data               mma8451.o
    0x20000082   0x00000002   PAD
    0x20000084   0x00000010   Data   RW         3777    .data               mpl3115.o
    0x20000094   0x00000002   Data   RW         3882    .data               sx1509.o
    0x20000096   0x00000002   Data   RW         3947    .data               sx9500.o
    0x20000098   0x00000020   Data   RW         4043    .data               sx1272.o
    0x200000b8   0x00000001   Data   RW         4230    .data               adc.o
    0x200000b9   0x00000007   PAD
    0x200000c0   0x00000020   Data   RW         4400    .data               gps.o
    0x200000e0   0x00000001   Data   RW         4496    .data               i2c.o
    0x200000e1   0x00000003   PAD
    0x200000e4   0x00000008   Data   RW         4562    .data               timer.o
    0x200000ec   0x0000005c   Zero   RW            9    .bss                main.o
    0x20000148   0x000000e0   Zero   RW          309    .bss                board.o
    0x20000228   0x0000000c   Zero   RW          310    .bss                board.o
    0x20000234   0x00000038   Zero   RW          313    .bss                board.o
    0x2000026c   0x00000040   Zero   RW          381    .bss                gpio-board.o
    0x200002ac   0x00000100   Zero   RW          463    .bss                gps-board.o
    0x200003ac   0x00000012   Zero   RW          688    .bss                spi-board.o
    0x200003be   0x00000002   PAD
    0x200003c0   0x00000018   Zero   RW          739    .bss                sx1272-board.o
    0x200003d8   0x00000224   Zero   RW         4041    .bss                sx1272.o
    0x200005fc   0x00000063   Zero   RW         4392    .bss                gps.o
    0x2000065f   0x00000001   PAD
    0x20000660   0x00000400   Zero   RW          968    STACK               startup_stm32l1xx_md.o


==============================================================================

Image component sizes


      Code (inc. data)   RO Data    RW Data    ZI Data      Debug   Object Name

       256         10          0          0          0       2580   adc-board.o
        44          6          0          1          0       1078   adc.o
       786         36          0          1        292       3182   board.o
        30          0          0          0          0        534   delay.o
       122          0          0          0          0       3483   fifo.o
       992         56          0          0         64       7624   gpio-board.o
       312          0          0          0          0       2985   gpio-ioe.o
       100          0          0          0          0       2729   gpio.o
       244         46          0          1        256       2364   gps-board.o
      2170         68         12         32         99       9502   gps.o
      1354         40          0          1          0       5740   i2c-board.o
       192         30          0          1          0       3521   i2c.o
       172         28          0          2          0       4522   mag3110.o
       776        110         16          6         92     270138   main.o
       124         16          0          0          0       1835   misc.o
       172         28          0          2          0       4518   mma8451.o
       272         28          0         16          0       5237   mpl3115.o
      1410        100         24         16          0      10528   rtc-board.o
       646         26          0          0         18       4376   spi-board.o
        36          8        244          0       1024        860   startup_stm32l1xx_md.o
       168         18          0          0          0       4677   stm32l1xx_adc.o
        28          6          0          0          0        648   stm32l1xx_dbgmcu.o
       148         16          0          0          0       2516   stm32l1xx_exti.o
       176          0          0          0          0       3943   stm32l1xx_gpio.o
       442         14          0          0          0       8229   stm32l1xx_i2c.o
       100         34          0          0          0       3003   stm32l1xx_pwr.o
       544        102          0         25          0      12328   stm32l1xx_rcc.o
      1256         80          0          0          0      13740   stm32l1xx_rtc.o
       226         12          0          0          0       5140   stm32l1xx_spi.o
        40          6          0          0          0        716   stm32l1xx_syscfg.o
       166         22          0          0          0       4042   stm32l1xx_tim.o
       502         26          0          0          0       6442   stm32l1xx_usart.o
       568         38         84          1         24       8707   sx1272-board.o
      5040        260        224         32        548      24013   sx1272.o
       164         28          0          2          0       4431   sx1509.o
       172         28          0          2          0       4487   sx9500.o
        10          0          0          0          0       2353   sysirqhandlers.o
       288         30          0         29          0      88521   system_stm32l1xx.o
       520         54          0         32          0       7264   timer-board.o
       674         60          0          8          0       8451   timer.o
       654         22          0          0          0       4071   uart-board.o
        90          0          0          0          0       2799   uart.o
        42          0          0          0          0       1643   utilities.o

    ----------------------------------------------------------------------
     22286       1492        636        236       2420     569500   Object Totals
         0          0         32          0          0          0   (incl. Generated)
        58          0          0         26          3          0   (incl. Padding)

    ----------------------------------------------------------------------

      Code (inc. data)   RO Data    RW Data    ZI Data      Debug   Library Member Name

       220         16          0          0          0         84   ceil.o
       220         16          0          0          0         84   floor.o
       148         12          0          0          0         88   round.o
         0          0          0          0          0          0   entry.o
         0          0          0          0          0          0   entry10a.o
         0          0          0          0          0          0   entry11a.o
         8          4          0          0          0          0   entry2.o
         4          0          0          0          0          0   entry5.o
         0          0          0          0          0          0   entry7b.o
         0          0          0          0          0          0   entry8b.o
         8          4          0          0          0          0   entry9a.o
        30          0          0          0          0          0   handlers.o
        36          8          0          0          0         68   init.o
         0          0          0          0          0          0   iusefp.o
        30          0          0          0          0         68   llshl.o
        36          0          0          0          0         68   llsshr.o
        32          0          0          0          0         68   llushr.o
        36          0          0          0          0         68   memcpya.o
        36          0          0          0          0        108   memseta.o
        30          0          0          0          0         80   strncmp.o
        48          0          0          0          0         68   cdcmple.o
        48          0          0          0          0         68   cdrcmple.o
       334          0          0          0          0        148   dadd.o
       222          0          0          0          0        100   ddiv.o
       186          0          0          0          0        176   depilogue.o
        62          0          0          0          0         80   dfixi.o
        50          0          0          0          0         76   dfixui.o
        48          0          0          0          0         68   dfixul.o
        34          0          0          0          0         76   dflti.o
        26          0          0          0          0         76   dfltui.o
        24          0          0          0          0         76   dfltul.o
       228          0          0          0          0         96   dmul.o
       136          4          0          0          0         92   drnd.o
        46          0          0          0          0         80   dscalb.o

    ----------------------------------------------------------------------
      2366         64          0          0          0       2064   Library Totals
         0          0          0          0          0          0   (incl. Padding)

    ----------------------------------------------------------------------

      Code (inc. data)   RO Data    RW Data    ZI Data      Debug   Library Name

       588         44          0          0          0        256   m_ws.l
       286         16          0          0          0        528   mc_w.l
      1492          4          0          0          0       1280   mf_w.l

    ----------------------------------------------------------------------
      2366         64          0          0          0       2064   Library Totals

    ----------------------------------------------------------------------

==============================================================================


      Code (inc. data)   RO Data    RW Data    ZI Data      Debug   

     24652       1556        636        236       2420     555908   Grand Totals
     24652       1556        636        236       2420     555908   ELF Image Totals
     24652       1556        636        236          0          0   ROM Totals

==============================================================================

    Total RO  Size (Code + RO Data)                25288 (  24.70kB)
    Total RW  Size (RW Data + ZI Data)              2656 (   2.59kB)
    Total ROM Size (Code + RO Data + RW Data)      25524 (  24.93kB)

==============================================================================

